(dp1
S''
(lp2
(I0
I2
I0
tp3
a(I1
I13
I0
tp4
a(I1
I1
I1
tp5
a(I2
I14
I0
tp6
a(I3
I10
I0
tp7
a(I4
I5
I0
tp8
a(I4
I1
I1
tp9
asS'limited'
p10
(lp11
(I0
I1
I0
tp12
a(I4
I1
I1
tp13
asS'concept'
p14
(lp15
(I0
I1
I0
tp16
a(I4
I1
I0
tp17
asS'allowed'
p18
(lp19
(I4
I2
I1
tp20
asS'consider'
p21
(lp22
(I3
I1
I0
tp23
asS'chain'
p24
(lp25
(I4
I1
I0
tp26
asS'saying'
p27
(lp28
(I3
I1
I1
tp29
asS'strengthened'
p30
(lp31
(I4
I1
I1
tp32
asS'crucial'
p33
(lp34
(I4
I1
I2
tp35
asS'carolus'
p36
(lp37
(I2
I1
I0
tp38
asS'focus'
p39
(lp40
(I2
I2
I0
tp41
a(I3
I2
I0
tp42
asS'founded'
p43
(lp44
(I3
I1
I1
tp45
asS'entwined'
p46
(lp47
(I4
I1
I1
tp48
asS'code'
p49
(lp50
(I1
I2
I0
tp51
a(I2
I1
I0
tp52
asS'computation'
p53
(lp54
(I0
I2
I0
tp55
a(I3
I1
I0
tp56
asS'go'
p57
(lp58
(I1
I1
I0
tp59
asS'indians'
p60
(lp61
(I4
I1
I0
tp62
asS'mill'
p63
(lp64
(I0
I1
I0
tp65
asS'reasoning'
p66
(lp67
(I2
I1
I0
tp68
asS'chaim'
p69
(lp70
(I4
I1
I0
tp71
asS'depend'
p72
(lp73
(I3
I1
I1
tp74
asS'animal'
p75
(lp76
(I4
I1
I2
tp77
asS'producing'
p78
(lp79
(I4
I1
I1
tp80
asS'involve'
p81
(lp82
(I3
I1
I1
tp83
asS'father'
p84
(lp85
(I0
I1
I0
tp86
asS'including'
p87
(lp88
(I4
I1
I1
tp89
asS'created'
p90
(lp91
(I2
I1
I1
tp92
asS'environment'
p93
(lp94
(I1
I1
I0
tp95
asS'finally'
p96
(lp97
(I2
I1
I0
tp98
asS'program'
p99
(lp100
(I0
I1
I0
tp101
asS'promoting'
p102
(lp103
(I2
I1
I1
tp104
asS'i'
(lp105
(I4
I1
I0
tp106
asS'include'
p107
(lp108
(I1
I1
I0
tp109
a(I1
I1
I1
tp110
asS'sent'
p111
(lp112
(I1
I1
I1
tp113
asS'division'
p114
(lp115
(I2
I1
I0
tp116
asS'updated'
p117
(lp118
(I1
I1
I1
tp119
a(I1
I1
I2
tp120
asS'supported'
p121
(lp122
(I1
I2
I1
tp123
asS'geology'
p124
(lp125
(I2
I1
I0
tp126
asS'desirable'
p127
(lp128
(I4
I1
I2
tp129
asS'continues'
p130
(lp131
(I3
I1
I1
tp132
asS'suggesting'
p133
(lp134
(I2
I1
I1
tp135
asS'difficult'
p136
(lp137
(I4
I1
I2
tp138
asS'bacterial'
p139
(lp140
(I4
I1
I2
tp141
asS'application'
p142
(lp143
(I4
I1
I0
tp144
a(I4
I1
I0
tp145
asS'word'
p146
(lp147
(I2
I1
I0
tp148
asS'difference'
p149
(lp150
(I3
I1
I0
tp151
asS'categories'
p152
(lp153
(I2
I1
I0
tp154
asS'treating'
p155
(lp156
(I4
I1
I0
tp157
asS'scholar'
p158
(lp159
(I2
I1
I0
tp160
asS'leeuwenhoek'
p161
(lp162
(I2
I1
I0
tp163
asS'crops'
p164
(lp165
(I4
I5
I0
tp166
asS'issue'
p167
(lp168
(I3
I1
I0
tp169
asS'notes'
p170
(lp171
(I1
I1
I0
tp172
asS'developing'
p173
(lp174
(I4
I1
I1
tp175
asS'accidentally'
p176
(lp177
(I1
I1
I3
tp178
asS'large'
p179
(lp180
(I4
I1
I2
tp181
asS'team'
p182
(lp183
(I1
I1
I0
tp184
asS'biological'
p185
(lp186
(I2
I3
I2
tp187
a(I4
I1
I0
tp188
a(I4
I5
I2
tp189
asS'conceptualize'
p190
(lp191
(I0
I1
I1
tp192
asS'20th'
p193
(lp194
(I0
I2
I2
tp195
asS'\x80'
(lp196
(I2
I2
I0
tp197
a(I3
I1
I0
tp198
a(I4
I1
I0
tp199
asS'smaller'
p200
(lp201
(I1
I1
I2
tp202
asS'antibiotic'
p203
(lp204
(I4
I1
I2
tp205
asS'disciplines'
p206
(lp207
(I3
I6
I0
tp208
asS'core'
p209
(lp210
(I0
I1
I0
tp211
asS'altering'
p212
(lp213
(I4
I1
I1
tp214
asS'efforts'
p215
(lp216
(I2
I1
I0
tp217
a(I3
I1
I0
tp218
asS'direct'
p219
(lp220
(I0
I1
I2
tp221
asS'modified'
p222
(lp223
(I4
I2
I1
tp224
asS'design'
p225
(lp226
(I0
I2
I0
tp227
a(I1
I1
I0
tp228
a(I3
I2
I0
tp229
asS'download'
p230
(lp231
(I1
I1
I0
tp232
asS'further'
p233
(lp234
(I2
I1
I2
tp235
a(I3
I1
I3
tp236
asS'copenhagen'
p237
(lp238
(I3
I1
I0
tp239
asS'acid'
p240
(lp241
(I4
I1
I0
tp242
asS'bacteria'
p243
(lp244
(I2
I1
I0
tp245
a(I2
I1
I1
tp246
asS'machines'
p247
(lp248
(I0
I1
I0
tp249
asS'even'
p250
(lp251
(I2
I2
I3
tp252
a(I4
I1
I3
tp253
asS'civilizations'
p254
(lp255
(I2
I1
I0
tp256
asS'plays'
p257
(lp258
(I4
I1
I0
tp259
asS'appear'
p260
(lp261
(I0
I1
I1
tp262
asS'organisms'
p263
(lp264
(I2
I3
I0
tp265
a(I4
I4
I0
tp266
a(I4
I1
I1
tp267
asS'contributed'
p268
(lp269
(I2
I1
I1
tp270
asS'microbiology'
p271
(lp272
(I4
I2
I0
tp273
asS'malleable'
p274
(lp275
(I2
I1
I2
tp276
asS'alcohols'
p277
(lp278
(I4
I1
I0
tp279
asS'cell'
p280
(lp281
(I2
I3
I0
tp282
a(I4
I2
I0
tp283
asS'19th'
p284
(lp285
(I0
I1
I2
tp286
a(I2
I1
I2
tp287
asS'version'
p288
(lp289
(I0
I1
I0
tp290
a(I1
I2
I0
tp291
asS'scientists'
p292
(lp293
(I4
I1
I0
tp294
asS'new'
p295
(lp296
(I1
I2
I2
tp297
a(I2
I2
I2
tp298
a(I4
I1
I2
tp299
asS'officially'
p300
(lp301
(I1
I1
I3
tp302
asS'informatica'
p303
(lp304
(I3
I1
I1
tp305
asS'body'
p306
(lp307
(I2
I1
I0
tp308
asS'impact'
p309
(lp310
(I2
I1
I0
tp311
asS'dissection'
p312
(lp313
(I2
I1
I0
tp314
asS'led'
p315
(lp316
(I1
I1
I1
tp317
a(I2
I2
I1
tp318
a(I4
I2
I1
tp319
asS'by-products'
p320
(lp321
(I4
I1
I0
tp322
asS'never'
p323
(lp324
(I0
I1
I3
tp325
asS'component'
p326
(lp327
(I2
I1
I0
tp328
asS'al-dinawari'
p329
(lp330
(I2
I1
I0
tp331
asS'understanding'
p332
(lp333
(I4
I1
I0
tp334
asS'reported'
p335
(lp336
(I1
I1
I1
tp337
asS'selective'
p338
(lp339
(I4
I2
I2
tp340
asS'china'
p341
(lp342
(I2
I1
I0
tp343
asS'twentieth'
p344
(lp345
(I4
I1
I0
tp346
asS'ethanol'
p347
(lp348
(I4
I2
I0
tp349
asS'others'
p350
(lp351
(I1
I1
I0
tp352
asS'apache'
p353
(lp354
(I1
I1
I0
tp355
asS'florey'
p356
(lp357
(I4
I1
I0
tp358
asS'november'
p359
(lp360
(I1
I1
I0
tp361
asS'invented'
p362
(lp363
(I0
I2
I1
tp364
asS'physiology'
p365
(lp366
(I2
I1
I0
tp367
asS'supplying'
p368
(lp369
(I1
I1
I1
tp370
asS'convert'
p371
(lp372
(I4
I2
I1
tp373
asS'property'
p374
(lp375
(I4
I1
I0
tp376
asS'lyell'
p377
(lp378
(I2
I1
I0
tp379
asS'technical'
p380
(lp381
(I4
I1
I2
tp382
asS'study'
p383
(lp384
(I2
I5
I0
tp385
a(I3
I3
I0
tp386
asS'studied'
p387
(lp388
(I2
I3
I1
tp389
asS'turologist'
p390
(lp391
(I3
I1
I0
tp392
asS'commonly'
p393
(lp394
(I4
I1
I3
tp395
asS'prior'
p396
(lp397
(I0
I1
I0
tp398
asS'afro-arab'
p399
(lp400
(I2
I1
I0
tp401
asS'disputes'
p402
(lp403
(I3
I1
I0
tp404
asS'products'
p405
(lp406
(I4
I5
I0
tp407
asS'emulator'
p408
(lp409
(I1
I1
I0
tp410
asS'farming'
p411
(lp412
(I4
I1
I0
tp413
asS'published'
p414
(lp415
(I2
I1
I0
tp416
a(I2
I1
I1
tp417
asS'usually'
p418
(lp419
(I3
I1
I3
tp420
asS'ancient'
p421
(lp422
(I2
I1
I0
tp423
a(I2
I1
I1
tp424
a(I2
I1
I2
tp425
a(I4
I1
I0
tp426
asS'changes'
p427
(lp428
(I1
I1
I0
tp429
asS'der'
p430
(lp431
(I2
I1
I0
tp432
asS'involves'
p433
(lp434
(I4
I1
I1
tp435
asS'bioprocess'
p436
(lp437
(I4
I1
I0
tp438
asS'technique'
p439
(lp440
(I4
I1
I0
tp441
asS'useful'
p442
(lp443
(I0
I1
I2
tp444
a(I3
I1
I2
tp445
asS'debugger'
p446
(lp447
(I1
I1
I0
tp448
asS'classification'
p449
(lp450
(I2
I1
I0
tp451
asS'elaborated'
p452
(lp453
(I2
I1
I1
tp454
asS'egypt'
p455
(lp456
(I2
I1
I0
tp457
a(I4
I1
I0
tp458
asS'requiring'
p459
(lp460
(I4
I1
I1
tp461
asS'pseudomonas'
p462
(lp463
(I4
I1
I0
tp464
asS'prefer'
p465
(lp466
(I3
I1
I1
tp467
asS'private'
p468
(lp469
(I1
I2
I2
tp470
asS'modifying'
p471
(lp472
(I4
I1
I0
tp473
asS'apk'
p474
(lp475
(I1
I1
I0
tp476
a(I1
I1
I2
tp477
asS'api'
p478
(lp479
(I1
I2
I0
tp480
asS'names'
p481
(lp482
(I2
I1
I0
tp483
a(I3
I2
I0
tp484
a(I3
I1
I1
tp485
asS'ailing'
p486
(lp487
(I4
I1
I1
tp488
asS'sugar'
p489
(lp490
(I4
I1
I0
tp491
asS'tools'
p492
(lp493
(I1
I5
I0
tp494
a(I1
I1
I0
tp495
asS'unit'
p496
(lp497
(I0
I1
I0
tp498
a(I2
I1
I0
tp499
asS'derivatives'
p500
(lp501
(I4
I1
I0
tp502
asS'executable'
p503
(lp504
(I1
I1
I2
tp505
asS'earliest'
p506
(lp507
(I4
I1
I2
tp508
asS'dna'
p509
(lp510
(I2
I3
I0
tp511
asS'working'
p512
(lp513
(I0
I1
I1
tp514
a(I1
I1
I1
tp515
a(I2
I1
I1
tp516
a(I4
I1
I1
tp517
asS'prove'
p518
(lp519
(I0
I1
I1
tp520
asS'remains'
p521
(lp522
(I0
I1
I1
tp523
asS'revelation'
p524
(lp525
(I1
I1
I0
tp526
asS'contains'
p527
(lp528
(I1
I1
I1
tp529
asS'readable'
p530
(lp531
(I0
I2
I2
tp532
asS'properties'
p533
(lp534
(I3
I1
I0
tp535
asS'process'
p536
(lp537
(I0
I1
I0
tp538
a(I4
I5
I0
tp539
asS'cultivation'
p540
(lp541
(I4
I2
I0
tp542
asS'call'
p543
(lp544
(I4
I1
I1
tp545
asS'opposed'
p546
(lp547
(I2
I2
I1
tp548
asS'georges-louis'
p549
(lp550
(I2
I1
I0
tp551
asS'themselves'
p552
(lp553
(I3
I1
I0
tp554
asS'preview'
p555
(lp556
(I1
I1
I0
tp557
asS'more'
p558
(lp559
(I2
I2
I3
tp560
a(I3
I2
I3
tp561
a(I4
I1
I2
tp562
asS'beer'
p563
(lp564
(I4
I2
I0
tp565
asS'diamond'
p566
(lp567
(I4
I1
I0
tp568
asS'comparison'
p569
(lp570
(I4
I1
I0
tp571
asS'successful'
p572
(lp573
(I0
I1
I2
tp574
a(I2
I1
I2
tp575
asS'company'
p576
(lp577
(I0
I1
I0
tp578
asS'factor'
p579
(lp580
(I4
I1
I0
tp581
asS'industrial'
p582
(lp583
(I4
I1
I2
tp584
asS'antibiotics'
p585
(lp586
(I4
I1
I0
tp587
asS'thermionic'
p588
(lp589
(I0
I1
I2
tp590
asS'known'
p591
(lp592
(I2
I1
I1
tp593
asS'effort'
p594
(lp595
(I2
I1
I0
tp596
asS'dex'
p597
(lp598
(I1
I1
I0
tp599
asS'states'
p600
(lp601
(I0
I1
I0
tp602
a(I0
I1
I1
tp603
a(I4
I1
I0
tp604
asS'keeping'
p605
(lp606
(I1
I1
I1
tp607
asS'animals'
p608
(lp609
(I2
I1
I0
tp610
a(I4
I1
I0
tp611
asS'ibm'
p612
(lp613
(I0
I1
I0
tp614
asS'announcing'
p615
(lp616
(I1
I1
I0
tp617
asS'rights'
p618
(lp619
(I4
I1
I0
tp620
asS'this'
p621
(lp622
(I1
I1
I0
tp623
a(I2
I1
I0
tp624
asS'science'
p625
(lp626
(I0
I1
I0
tp627
a(I0
I1
I0
tp628
a(I3
I16
I0
tp629
a(I4
I1
I0
tp630
asS'challenge'
p631
(lp632
(I1
I3
I0
tp633
asS'work'
p634
(lp635
(I2
I2
I0
tp636
a(I3
I1
I0
tp637
a(I4
I2
I0
tp638
asS'eclipse'
p639
(lp640
(I1
I1
I0
tp641
asS'installing'
p642
(lp643
(I1
I1
I1
tp644
asS'capable'
p645
(lp646
(I4
I1
I2
tp647
asS'theories'
p648
(lp649
(I2
I2
I0
tp650
asS'tissue'
p651
(lp652
(I4
I1
I0
tp653
asS'del'
p654
(lp655
(I3
I1
I0
tp656
asS'era'
p657
(lp658
(I2
I1
I0
tp659
asS'henry'
p660
(lp661
(I0
I1
I0
tp662
asS'growing'
p663
(lp664
(I4
I1
I1
tp665
asS'making'
p666
(lp667
(I3
I1
I1
tp668
asS'mesopotamia'
p669
(lp670
(I2
I1
I0
tp671
a(I4
I1
I0
tp672
asS'crude'
p673
(lp674
(I4
I1
I2
tp675
asS'root'
p676
(lp677
(I1
I1
I0
tp678
asS'example'
p679
(lp680
(I3
I1
I0
tp681
a(I4
I1
I0
tp682
asS'history'
p683
(lp684
(I2
I1
I0
tp685
a(I2
I3
I0
tp686
a(I4
I1
I0
tp687
asS'control'
p688
(lp689
(I0
I1
I0
tp690
a(I1
I1
I0
tp691
a(I4
I1
I0
tp692
asS'informatique'
p693
(lp694
(I3
I1
I2
tp695
asS'transition'
p696
(lp697
(I2
I1
I0
tp698
asS'figure'
p699
(lp700
(I2
I1
I0
tp701
asS'stated'
p702
(lp703
(I3
I1
I1
tp704
asS'calculation'
p705
(lp706
(I0
I1
I0
tp707
asS'mold'
p708
(lp709
(I4
I1
I0
tp710
asS'khorana'
p711
(lp712
(I2
I1
I0
tp713
asS'india'
p714
(lp715
(I4
I1
I0
tp716
asS'purposes'
p717
(lp718
(I4
I1
I0
tp719
asS'sample'
p720
(lp721
(I1
I1
I0
tp722
asS'sphere'
p723
(lp724
(I4
I1
I0
tp725
asS'his'
p726
(lp727
(I4
I1
I0
tp728
asS'performed'
p729
(lp730
(I0
I1
I1
tp731
asS'sense'
p732
(lp733
(I2
I1
I0
tp734
asS'specific'
p735
(lp736
(I3
I1
I2
tp737
a(I4
I1
I0
tp738
a(I4
I3
I2
tp739
asS'times'
p740
(lp741
(I2
I2
I0
tp742
asS'conversely'
p743
(lp744
(I4
I1
I3
tp745
asS'species'
p746
(lp747
(I2
I2
I0
tp748
asS'information'
p749
(lp750
(I0
I1
I0
tp751
a(I3
I3
I0
tp752
a(I4
I1
I0
tp753
asS'needs'
p754
(lp755
(I0
I1
I1
tp756
asS'united'
p757
(lp758
(I0
I1
I0
tp759
a(I4
I3
I0
tp760
asS'end'
p761
(lp762
(I0
I1
I0
tp763
asS'goal'
p764
(lp765
(I2
I1
I0
tp766
asS'means'
p767
(lp768
(I3
I1
I0
tp769
asS'spreadsheet'
p770
(lp771
(I0
I1
I0
tp772
asS'arrangement'
p773
(lp774
(I1
I1
I0
tp775
asS'machine'
p776
(lp777
(I0
I5
I0
tp778
asS'winners'
p779
(lp780
(I1
I1
I0
tp781
asS'pure'
p782
(lp783
(I4
I2
I0
tp784
asS'\xb6'
(lp785
(I3
I1
I0
tp786
asS'uniformitarian'
p787
(lp788
(I2
I1
I2
tp789
asS'inputs'
p790
(lp791
(I4
I1
I0
tp792
asS'plant'
p793
(lp794
(I2
I1
I0
tp795
a(I4
I1
I0
tp796
asS'intended'
p797
(lp798
(I1
I1
I1
tp799
asS'algebra'
p800
(lp801
(I0
I1
I0
tp802
a(I3
I1
I0
tp803
asS'farm'
p804
(lp805
(I4
I1
I0
tp806
asS'turing'
p807
(lp808
(I0
I5
I0
tp809
a(I3
I1
I0
tp810
asS'clostridium'
p811
(lp812
(I4
I1
I0
tp813
asS'after'
p814
(lp815
(I0
I1
I0
tp816
asS'derived'
p817
(lp818
(I3
I2
I1
tp819
a(I4
I1
I1
tp820
asS'mapping'
p821
(lp822
(I2
I1
I1
tp823
asS'pasteur'
p824
(lp825
(I4
I1
I0
tp826
asS'reflect'
p827
(lp828
(I3
I1
I1
tp829
asS'applications'
p830
(lp831
(I1
I3
I0
tp832
a(I4
I1
I0
tp833
asS'mac'
p834
(lp835
(I1
I1
I0
tp836
asS'explored'
p837
(lp838
(I4
I1
I1
tp839
asS'burdach'
p840
(lp841
(I2
I1
I0
tp842
asS'fits'
p843
(lp844
(I4
I1
I1
tp845
asS'remak'
p846
(lp847
(I2
I1
I0
tp848
asS'data'
p849
(lp850
(I0
I3
I0
tp851
a(I3
I2
I0
tp852
asS'compatibility'
p853
(lp854
(I1
I1
I0
tp855
asS'types'
p856
(lp857
(I3
I1
I0
tp858
asS'descent'
p859
(lp860
(I2
I1
I0
tp861
asS'a'
(lp862
(I2
I1
I0
tp863
asS'introduced'
p864
(lp865
(I2
I2
I1
tp866
asS'natural'
p867
(lp868
(I2
I1
I0
tp869
a(I2
I4
I2
tp870
asS'computations'
p871
(lp872
(I3
I1
I0
tp873
asS'documentation'
p874
(lp875
(I1
I1
I0
tp876
asS'introducing'
p877
(lp878
(I4
I1
I1
tp879
asS'purification'
p880
(lp881
(I4
I1
I0
tp882
asS'greek'
p883
(lp884
(I2
I3
I0
tp885
asS'maintain'
p886
(lp887
(I4
I1
I0
tp888
asS'so'
p889
(lp890
(I1
I1
I3
tp891
asS'things'
p892
(lp893
(I4
I1
I0
tp894
asS'representation'
p895
(lp896
(I2
I1
I0
tp897
asS'kurt'
p898
(lp899
(I3
I1
I0
tp900
asS'make'
p901
(lp902
(I3
I1
I1
tp903
a(I4
I2
I1
tp904
asS'triggering'
p905
(lp906
(I1
I1
I1
tp907
asS'howard'
p908
(lp909
(I4
I1
I0
tp910
asS'evolutionary'
p911
(lp912
(I2
I1
I0
tp913
a(I2
I4
I2
tp914
asS'september'
p915
(lp916
(I1
I1
I0
tp917
asS'taxonomy'
p918
(lp919
(I2
I2
I0
tp920
asS'pointed'
p921
(lp922
(I2
I2
I1
tp923
asS'mainly'
p924
(lp925
(I1
I1
I3
tp926
a(I3
I1
I3
tp927
asS'years'
p928
(lp929
(I4
I1
I0
tp930
asS'produced'
p931
(lp932
(I0
I1
I1
tp933
a(I4
I1
I1
tp934
asS'held'
p935
(lp936
(I2
I1
I1
tp937
asS'mathematicians'
p938
(lp939
(I3
I1
I0
tp940
asS'paper'
p941
(lp942
(I0
I1
I0
tp943
asS'through'
p944
(lp945
(I4
I1
I0
tp946
asS'flow-charts-man'
p947
(lp948
(I3
I1
I2
tp949
asS'keyboard'
p950
(lp951
(I0
I1
I0
tp952
asS'staining'
p953
(lp954
(I2
I1
I0
tp955
asS'still'
p956
(lp957
(I2
I1
I3
tp958
a(I4
I2
I3
tp959
asS'biofuels'
p960
(lp961
(I4
I2
I0
tp962
asS'upholding'
p963
(lp964
(I2
I1
I0
tp965
asS'developer'
p966
(lp967
(I1
I1
I0
tp968
a(I1
I3
I0
tp969
asS'sciences'
p970
(lp971
(I2
I2
I0
tp972
a(I4
I4
I0
tp973
asS'ephedra'
p974
(lp975
(I4
I1
I0
tp976
asS'rapidly'
p977
(lp978
(I4
I1
I3
tp979
asS'wallace'
p980
(lp981
(I2
I1
I0
tp982
asS'encompasses'
p983
(lp984
(I4
I1
I1
tp985
asS'late'
p986
(lp987
(I0
I1
I2
tp988
asS'platform'
p989
(lp990
(I1
I3
I0
tp991
asS'buffon'
p992
(lp993
(I2
I2
I0
tp994
asS'production'
p995
(lp996
(I4
I2
I0
tp997
asS'humboldt'
p998
(lp999
(I2
I1
I0
tp1000
asS'systems'
p1001
(lp1002
(I3
I3
I0
tp1003
a(I4
I2
I0
tp1004
asS'alexander'
p1005
(lp1006
(I4
I1
I0
tp1007
asS'marshall'
p1008
(lp1009
(I2
I1
I0
tp1010
asS'soybeans'
p1011
(lp1012
(I4
I1
I0
tp1013
asS'then'
p1014
(lp1015
(I1
I1
I3
tp1016
a(I2
I1
I3
tp1017
a(I4
I1
I3
tp1018
asS'ologie'
p1019
(lp1020
(I2
I1
I0
tp1021
asS'greater'
p1022
(lp1023
(I4
I1
I2
tp1024
asS'food'
p1025
(lp1026
(I4
I5
I0
tp1027
asS'entomology'
p1028
(lp1029
(I2
I1
I0
tp1030
asS'processes'
p1031
(lp1032
(I4
I2
I0
tp1033
asS'ruled'
p1034
(lp1035
(I4
I1
I1
tp1036
asS'microorganism'
p1037
(lp1038
(I4
I1
I0
tp1039
asS'norman'
p1040
(lp1041
(I4
I1
I0
tp1042
asS'understood'
p1043
(lp1044
(I2
I1
I1
tp1045
a(I4
I1
I1
tp1046
asS'compound'
p1047
(lp1048
(I2
I1
I0
tp1049
asS'not'
p1050
(lp1051
(I0
I2
I3
tp1052
a(I1
I1
I3
tp1053
a(I3
I3
I3
tp1054
a(I4
I4
I3
tp1055
asS'acetone'
p1056
(lp1057
(I4
I1
I0
tp1058
asS'instructions'
p1059
(lp1060
(I1
I1
I0
tp1061
asS'going'
p1062
(lp1063
(I4
I1
I1
tp1064
asS'term'
p1065
(lp1066
(I2
I1
I0
tp1067
a(I3
I6
I0
tp1068
a(I4
I1
I0
tp1069
asS'name'
p1070
(lp1071
(I3
I1
I0
tp1072
asS'profound'
p1073
(lp1074
(I2
I1
I0
tp1075
asS'edit'
p1076
(lp1077
(I1
I1
I1
tp1078
asS'fully'
p1079
(lp1080
(I0
I1
I3
tp1081
a(I4
I1
I3
tp1082
asS'university'
p1083
(lp1084
(I3
I1
I0
tp1085
asS'naturalist'
p1086
(lp1087
(I2
I1
I0
tp1088
a(I2
I1
I2
tp1089
asS'normally'
p1090
(lp1091
(I4
I1
I3
tp1092
asS'subcontinent'
p1093
(lp1094
(I2
I1
I0
tp1095
asS'productivity'
p1096
(lp1097
(I4
I1
I0
tp1098
asS'formalisation'
p1099
(lp1100
(I0
I1
I0
tp1101
asS'good'
p1102
(lp1103
(I4
I1
I2
tp1104
asS'improvements'
p1105
(lp1106
(I4
I1
I0
tp1107
asS'tenets'
p1108
(lp1109
(I2
I1
I0
tp1110
asS'fields'
p1111
(lp1112
(I3
I1
I0
tp1113
a(I4
I2
I0
tp1114
asS'debug'
p1115
(lp1116
(I1
I1
I0
tp1117
asS'done'
p1118
(lp1119
(I4
I1
I1
tp1120
asS'higher'
p1121
(lp1122
(I4
I1
I2
tp1123
asS'biologie'
p1124
(lp1125
(I2
I1
I0
tp1126
asS'domain'
p1127
(lp1128
(I2
I1
I0
tp1129
a(I3
I1
I0
tp1130
asS'everyone'
p1131
(lp1132
(I0
I1
I0
tp1133
asS'series'
p1134
(lp1135
(I2
I1
I0
tp1136
asS'eg'
p1137
(lp1138
(I1
I1
I0
tp1139
asS'reduce'
p1140
(lp1141
(I4
I1
I1
tp1142
asS'idea'
p1143
(lp1144
(I2
I1
I0
tp1145
asS'related'
p1146
(lp1147
(I2
I1
I1
tp1148
a(I4
I1
I2
tp1149
asS'used'
p1150
(lp1151
(I0
I1
I1
tp1152
a(I3
I1
I1
tp1153
a(I4
I7
I1
tp1154
asS'begun'
p1155
(lp1156
(I0
I1
I1
tp1157
a(I4
I1
I1
tp1158
asS'combining'
p1159
(lp1160
(I2
I1
I1
tp1161
asS'naming'
p1162
(lp1163
(I0
I1
I0
tp1164
asS'recognizable'
p1165
(lp1166
(I0
I1
I2
tp1167
asS'agriculture'
p1168
(lp1169
(I4
I1
I0
tp1170
a(I4
I3
I0
tp1171
asS'penicillin'
p1172
(lp1173
(I4
I2
I0
tp1174
asS'principles'
p1175
(lp1176
(I2
I1
I0
tp1177
asS'living'
p1178
(lp1179
(I2
I1
I1
tp1180
a(I4
I2
I0
tp1181
a(I4
I2
I1
tp1182
asS'followed'
p1183
(lp1184
(I3
I1
I1
tp1185
asS'funding'
p1186
(lp1187
(I3
I1
I0
tp1188
asS'biorobotics'
p1189
(lp1190
(I4
I1
I0
tp1191
asS'robert'
p1192
(lp1193
(I2
I2
I0
tp1194
asS'valve'
p1195
(lp1196
(I0
I1
I0
tp1197
asS'kensington'
p1198
(lp1199
(I0
I1
I0
tp1200
asS'reboot'
p1201
(lp1202
(I1
I1
I0
tp1203
asS'research'
p1204
(lp1205
(I3
I2
I0
tp1206
asS'increase'
p1207
(lp1208
(I4
I1
I1
tp1209
asS'hybridization'
p1210
(lp1211
(I4
I1
I0
tp1212
asS'dutch'
p1213
(lp1214
(I3
I1
I2
tp1215
asS'medicine'
p1216
(lp1217
(I2
I1
I0
tp1218
a(I2
I1
I0
tp1219
a(I4
I1
I0
tp1220
asS'lebenden'
p1221
(lp1222
(I2
I1
I0
tp1223
asS'supports'
p1224
(lp1225
(I1
I1
I1
tp1226
asS'integrated'
p1227
(lp1228
(I1
I1
I1
tp1229
asS'foundation'
p1230
(lp1231
(I0
I1
I0
tp1232
asS'penicillium'
p1233
(lp1234
(I4
I1
I0
tp1235
asS'earlier'
p1236
(lp1237
(I1
I1
I2
tp1238
asS'theory'
p1239
(lp1240
(I2
I2
I0
tp1241
a(I3
I2
I0
tp1242
asS'largely'
p1243
(lp1244
(I4
I1
I3
tp1245
asS'sheer'
p1246
(lp1247
(I2
I1
I0
tp1248
asS'possibility'
p1249
(lp1250
(I2
I1
I0
tp1251
asS'release'
p1252
(lp1253
(I1
I1
I0
tp1254
a(I1
I5
I0
tp1255
asS'approaches'
p1256
(lp1257
(I4
I1
I0
tp1258
asS'keypunch'
p1259
(lp1260
(I0
I1
I0
tp1261
asS'boosting'
p1262
(lp1263
(I4
I1
I0
tp1264
asS'acetobutylicum'
p1265
(lp1266
(I4
I1
I0
tp1267
asS'byte'
p1268
(lp1269
(I1
I1
I0
tp1270
asS'hand'
p1271
(lp1272
(I1
I2
I0
tp1273
asS'telescopes'
p1274
(lp1275
(I3
I1
I0
tp1276
asS'card'
p1277
(lp1278
(I0
I1
I0
tp1279
asS'carbohydrates'
p1280
(lp1281
(I4
I1
I0
tp1282
asS'definition'
p1283
(lp1284
(I2
I1
I0
tp1285
a(I4
I1
I0
tp1286
asS'g'
(lp1287
(I3
I1
I0
tp1288
asS'islamic'
p1289
(lp1290
(I2
I1
I0
tp1291
asS'corn'
p1292
(lp1293
(I4
I3
I0
tp1294
asS'computers'
p1295
(lp1296
(I0
I4
I0
tp1297
a(I1
I1
I0
tp1298
a(I3
I4
I0
tp1299
asS'days'
p1300
(lp1301
(I3
I1
I0
tp1302
asS'british'
p1303
(lp1304
(I2
I1
I2
tp1305
asS'round'
p1306
(lp1307
(I1
I1
I0
tp1308
asS'produce'
p1309
(lp1310
(I4
I6
I1
tp1311
asS'w'
(lp1312
(I2
I1
I0
tp1313
asS'successor'
p1314
(lp1315
(I2
I1
I0
tp1316
asS'comte'
p1317
(lp1318
(I2
I1
I0
tp1319
asS'rudolf'
p1320
(lp1321
(I2
I1
I0
tp1322
asS'support'
p1323
(lp1324
(I4
I1
I1
tp1325
asS'south'
p1326
(lp1327
(I0
I1
I0
tp1328
asS'first'
p1329
(lp1330
(I0
I3
I2
tp1331
a(I1
I1
I2
tp1332
a(I2
I1
I2
tp1333
a(I3
I2
I2
tp1334
a(I4
I2
I2
tp1335
a(I4
I1
I3
tp1336
asS'botany'
p1337
(lp1338
(I2
I2
I0
tp1339
asS'major'
p1340
(lp1341
(I3
I1
I2
tp1342
asS'already'
p1343
(lp1344
(I1
I1
I3
tp1345
asS'features'
p1346
(lp1347
(I1
I1
I0
tp1348
asS'revenue'
p1349
(lp1350
(I4
I1
I0
tp1351
asS'bread'
p1352
(lp1353
(I4
I1
I0
tp1354
asS'number'
p1355
(lp1356
(I0
I1
I0
tp1357
a(I2
I1
I0
tp1358
a(I3
I1
I0
tp1359
asS'preservation'
p1360
(lp1361
(I4
I1
I0
tp1362
asS'antiquity'
p1363
(lp1364
(I2
I1
I0
tp1365
asS'instances'
p1366
(lp1367
(I4
I1
I0
tp1368
asS'revolution'
p1369
(lp1370
(I4
I1
I0
tp1371
asS'simplified'
p1372
(lp1373
(I0
I1
I1
tp1374
asS'directly'
p1375
(lp1376
(I4
I1
I3
tp1377
asS'such'
p1378
(lp1379
(I2
I2
I2
tp1380
a(I3
I4
I2
tp1381
a(I4
I4
I2
tp1382
asS'xp'
p1383
(lp1384
(I1
I1
I0
tp1385
asS'precisely'
p1386
(lp1387
(I3
I1
I3
tp1388
asS'electronic'
p1389
(lp1390
(I0
I1
I2
tp1391
asS'interchange'
p1392
(lp1393
(I3
I1
I0
tp1394
asS'given'
p1395
(lp1396
(I0
I1
I1
tp1397
asS'"'
(lp1398
(I1
I2
I0
tp1399
a(I2
I2
I0
tp1400
a(I3
I2
I0
tp1401
a(I4
I2
I0
tp1402
a(I4
I1
I1
tp1403
asS'practitioners'
p1404
(lp1405
(I3
I1
I0
tp1406
asS'parnas'
p1407
(lp1408
(I3
I1
I0
tp1409
asS'tinkering'
p1410
(lp1411
(I0
I1
I0
tp1412
asS'system'
p1413
(lp1414
(I4
I1
I0
tp1415
asS'codons'
p1416
(lp1417
(I2
I1
I0
tp1418
asS'remotely'
p1419
(lp1420
(I1
I1
I3
tp1421
asS'needed'
p1422
(lp1423
(I4
I2
I1
tp1424
asS'heatley'
p1425
(lp1426
(I4
I1
I0
tp1427
asS'alfred'
p1428
(lp1429
(I2
I1
I0
tp1430
asS'realization'
p1431
(lp1432
(I0
I1
I0
tp1433
asS'programmable'
p1434
(lp1435
(I0
I2
I2
tp1436
asS'starch'
p1437
(lp1438
(I4
I2
I0
tp1439
asS'expanded'
p1440
(lp1441
(I2
I1
I1
tp1442
asS'brewing'
p1443
(lp1444
(I4
I1
I1
tp1445
asS'finances'
p1446
(lp1447
(I0
I1
I0
tp1448
asS'manufacture'
p1449
(lp1450
(I4
I1
I1
tp1451
asS'danish'
p1452
(lp1453
(I3
I1
I0
tp1454
asS'way'
p1455
(lp1456
(I4
I1
I0
tp1457
asS'releases'
p1458
(lp1459
(I1
I1
I0
tp1460
asS'cope'
p1461
(lp1462
(I4
I1
I1
tp1463
asS'completed'
p1464
(lp1465
(I0
I2
I1
tp1466
a(I2
I1
I1
tp1467
asS'convention'
p1468
(lp1469
(I4
I1
I0
tp1470
asS'treviranus'
p1471
(lp1472
(I2
I1
I0
tp1473
asS'alan'
p1474
(lp1475
(I0
I1
I0
tp1476
a(I3
I1
I0
tp1477
asS'released'
p1478
(lp1479
(I1
I2
I0
tp1480
a(I1
I2
I1
tp1481
asS'part'
p1482
(lp1483
(I3
I1
I0
tp1484
asS'court'
p1485
(lp1486
(I4
I1
I0
tp1487
asS'viewed'
p1488
(lp1489
(I4
I1
I1
tp1490
asS'july'
p1491
(lp1492
(I1
I1
I0
tp1493
asS'chromosomes'
p1494
(lp1495
(I2
I1
I0
tp1496
asS'versatility'
p1497
(lp1498
(I0
I1
I0
tp1499
asS'computer/computation'
p1500
(lp1501
(I3
I1
I0
tp1502
asS'population'
p1503
(lp1504
(I2
I2
I0
tp1505
a(I4
I2
I0
tp1506
asS'wide'
p1507
(lp1508
(I4
I1
I2
tp1509
asS'molecular'
p1510
(lp1511
(I2
I3
I2
tp1512
a(I4
I2
I2
tp1513
asS'target'
p1514
(lp1515
(I1
I1
I1
tp1516
asS'showed'
p1517
(lp1518
(I2
I1
I1
tp1519
asS'double'
p1520
(lp1521
(I2
I1
I2
tp1522
asS'programs'
p1523
(lp1524
(I4
I1
I0
tp1525
asS'scandinavian'
p1526
(lp1527
(I3
I1
I2
tp1528
asS'recording'
p1529
(lp1530
(I0
I1
I0
tp1531
asS'enzymes'
p1532
(lp1533
(I4
I1
I0
tp1534
asS'individual'
p1535
(lp1536
(I2
I1
I2
tp1537
asS'were'
p1538
(lp1539
(I0
I3
I1
tp1540
a(I1
I1
I1
tp1541
a(I2
I1
I1
tp1542
a(I3
I1
I1
tp1543
a(I4
I4
I1
tp1544
asS'cards'
p1545
(lp1546
(I0
I3
I0
tp1547
asS'providing'
p1548
(lp1549
(I0
I1
I1
tp1550
asS'treated'
p1551
(lp1552
(I2
I1
I1
tp1553
asS'fermentation'
p1554
(lp1555
(I4
I3
I0
tp1556
a(I4
I1
I0
tp1557
asS'files'
p1558
(lp1559
(I1
I4
I0
tp1560
asS'contentious'
p1561
(lp1562
(I3
I1
I2
tp1563
asS'enforcement'
p1564
(lp1565
(I4
I1
I0
tp1566
asS'modern'
p1567
(lp1568
(I0
I4
I2
tp1569
a(I1
I1
I2
tp1570
a(I2
I3
I2
tp1571
a(I4
I1
I0
tp1572
a(I4
I2
I2
tp1573
asS'ages'
p1574
(lp1575
(I2
I1
I0
tp1576
asS'ant'
p1577
(lp1578
(I1
I1
I0
tp1579
asS'medical'
p1580
(lp1581
(I4
I1
I2
tp1582
asS'environments'
p1583
(lp1584
(I4
I1
I0
tp1585
asS'have'
p1586
(lp1587
(I1
I1
I1
tp1588
a(I2
I4
I1
tp1589
a(I3
I2
I1
tp1590
a(I4
I5
I1
tp1591
asS'gobind'
p1592
(lp1593
(I2
I1
I0
tp1594
asS'programmability'
p1595
(lp1596
(I0
I1
I0
tp1597
asS'demonstration'
p1598
(lp1599
(I0
I1
I0
tp1600
asS'any'
p1601
(lp1602
(I4
I1
I0
tp1603
asS'karl'
p1604
(lp1605
(I2
I1
I0
tp1606
asS'relatively'
p1607
(lp1608
(I2
I1
I3
tp1609
asS'ecology'
p1610
(lp1611
(I4
I1
I0
tp1612
asS'built'
p1613
(lp1614
(I2
I1
I1
tp1615
asS'bacterium'
p1616
(lp1617
(I4
I1
I0
tp1618
asS'studying'
p1619
(lp1620
(I3
I1
I1
tp1621
asS'ensuring'
p1622
(lp1623
(I4
I1
I0
tp1624
asS'upgrading'
p1625
(lp1626
(I1
I1
I1
tp1627
asS'ideas'
p1628
(lp1629
(I2
I1
I0
tp1630
a(I3
I2
I0
tp1631
asS'targets'
p1632
(lp1633
(I4
I1
I0
tp1634
asS'also'
p1635
(lp1636
(I1
I3
I3
tp1637
a(I2
I1
I3
tp1638
a(I3
I1
I0
tp1639
a(I3
I2
I3
tp1640
a(I4
I4
I3
tp1641
asS'emphasis'
p1642
(lp1643
(I3
I3
I0
tp1644
a(I4
I1
I0
tp1645
asS'build'
p1646
(lp1647
(I1
I1
I1
tp1648
asS'genetically'
p1649
(lp1650
(I4
I2
I3
tp1651
asS'accuracy'
p1652
(lp1653
(I0
I1
I0
tp1654
asS'province'
p1655
(lp1656
(I3
I1
I0
tp1657
asS'universities'
p1658
(lp1659
(I3
I1
I0
tp1660
asS'added'
p1661
(lp1662
(I1
I1
I1
tp1663
asS'multiple'
p1664
(lp1665
(I1
I1
I0
tp1666
asS'electric'
p1667
(lp1668
(I4
I1
I0
tp1669
asS'investigations'
p1670
(lp1671
(I2
I1
I0
tp1672
asS'reach'
p1673
(lp1674
(I2
I1
I1
tp1675
asS'philosophy'
p1676
(lp1677
(I2
I1
I0
tp1678
a(I3
I1
I0
tp1679
asS'breaking'
p1680
(lp1681
(I4
I1
I0
tp1682
asS'meta-mathematician'
p1683
(lp1684
(I3
I1
I2
tp1685
asS'anatomy'
p1686
(lp1687
(I2
I1
I0
tp1688
asS'most'
p1689
(lp1690
(I0
I1
I2
tp1691
a(I2
I3
I2
tp1692
a(I2
I1
I3
tp1693
asS'beta'
p1694
(lp1695
(I1
I1
I0
tp1696
asS'involving'
p1697
(lp1698
(I3
I1
I1
tp1699
asS'bioprocesses'
p1700
(lp1701
(I4
I1
I0
tp1702
asS'significant'
p1703
(lp1704
(I2
I1
I0
tp1705
a(I3
I1
I2
tp1706
asS'device'
p1707
(lp1708
(I0
I1
I0
tp1709
asS'statistics'
p1710
(lp1711
(I3
I1
I0
tp1712
asS'drought'
p1713
(lp1714
(I4
I1
I0
tp1715
asS'herman'
p1716
(lp1717
(I0
I1
I0
tp1718
asS'explosives'
p1719
(lp1720
(I4
I1
I0
tp1721
asS'schwann'
p1722
(lp1723
(I2
I1
I0
tp1724
asS'\xe2'
(lp1725
(I2
I3
I0
tp1726
a(I3
I1
I0
tp1727
a(I4
I1
I0
tp1728
asS'especially'
p1729
(lp1730
(I2
I1
I0
tp1731
a(I2
I2
I3
tp1732
asS'windows'
p1733
(lp1734
(I1
I1
I0
tp1735
asS'professor'
p1736
(lp1737
(I3
I1
I0
tp1738
asS'later'
p1739
(lp1740
(I0
I1
I1
tp1741
a(I0
I1
I2
tp1742
a(I1
I1
I0
tp1743
a(I1
I1
I2
tp1744
a(I2
I1
I2
tp1745
a(I3
I1
I2
tp1746
a(I4
I1
I0
tp1747
asS'infections'
p1748
(lp1749
(I4
I1
I0
tp1750
asS'concepts'
p1751
(lp1752
(I4
I1
I0
tp1753
asS'vulgaris'
p1754
(lp1755
(I4
I1
I1
tp1756
asS'chemical'
p1757
(lp1758
(I4
I1
I2
tp1759
asS'cross-fertilization'
p1760
(lp1761
(I3
I1
I0
tp1762
asS'mechanical'
p1763
(lp1764
(I0
I2
I2
tp1765
a(I4
I1
I2
tp1766
asS'boris'
p1767
(lp1768
(I4
I1
I0
tp1769
asS'physics'
p1770
(lp1771
(I3
I1
I0
tp1772
asS'fact'
p1773
(lp1774
(I0
I1
I0
tp1775
a(I3
I1
I0
tp1776
asS'applied'
p1777
(lp1778
(I3
I2
I1
tp1779
a(I4
I1
I2
tp1780
asS'sector'
p1781
(lp1782
(I4
I3
I0
tp1783
asS'incorporate'
p1784
(lp1785
(I2
I1
I1
tp1786
asS'thomas'
p1787
(lp1788
(I2
I1
I0
tp1789
asS'selection'
p1790
(lp1791
(I2
I1
I0
tp1792
a(I4
I1
I0
tp1793
asS'german'
p1794
(lp1795
(I3
I1
I0
tp1796
asS'text'
p1797
(lp1798
(I1
I1
I0
tp1799
asS'charles'
p1800
(lp1801
(I0
I1
I0
tp1802
a(I2
I1
I0
tp1803
asS'fleming'
p1804
(lp1805
(I4
I1
I0
tp1806
asS'discovered'
p1807
(lp1808
(I2
I1
I1
tp1809
a(I4
I1
I1
tp1810
asS'developed'
p1811
(lp1812
(I4
I3
I1
tp1813
asS'\x93'
(lp1814
(I2
I2
I0
tp1815
a(I3
I1
I0
tp1816
asS'broken'
p1817
(lp1818
(I4
I1
I1
tp1819
asS'rhazes'
p1820
(lp1821
(I2
I1
I1
tp1822
asS'malted'
p1823
(lp1824
(I4
I1
I1
tp1825
asS'technologies'
p1826
(lp1827
(I0
I1
I0
tp1828
a(I4
I1
I0
tp1829
asS'principal'
p1830
(lp1831
(I3
I2
I2
tp1832
asS'xml'
p1833
(lp1834
(I1
I1
I0
tp1835
asS'computics'
p1836
(lp1837
(I3
I1
I0
tp1838
asS'taps'
p1839
(lp1840
(I0
I1
I3
tp1841
asS'based'
p1842
(lp1843
(I1
I1
I1
tp1844
a(I2
I1
I1
tp1845
asS'knowledge'
p1846
(lp1847
(I2
I1
I0
tp1848
a(I4
I1
I0
tp1849
asS'leanings'
p1850
(lp1851
(I2
I1
I0
tp1852
asS'enough'
p1853
(lp1854
(I4
I1
I2
tp1855
asS'institution'
p1856
(lp1857
(I3
I1
I0
tp1858
asS'jan'
p1859
(lp1860
(I2
I1
I0
tp1861
asS'hierarchy'
p1862
(lp1863
(I2
I1
I0
tp1864
asS'only'
p1865
(lp1866
(I1
I1
I3
tp1867
asS'indian'
p1868
(lp1869
(I2
I1
I0
tp1870
asS'tape'
p1871
(lp1872
(I0
I1
I0
tp1873
asS'inventions'
p1874
(lp1875
(I0
I1
I0
tp1876
asS'fuel'
p1877
(lp1878
(I4
I1
I0
tp1879
asS'folder'
p1880
(lp1881
(I1
I2
I0
tp1882
asS'darwin'
p1883
(lp1884
(I2
I2
I0
tp1885
asS'jean-baptiste'
p1886
(lp1887
(I2
I2
I2
tp1888
asS'achieve'
p1889
(lp1890
(I3
I1
I1
tp1891
asS'meant'
p1892
(lp1893
(I0
I1
I1
tp1894
asS'\xc3'
(lp1895
(I2
I1
I0
tp1896
a(I3
I1
I0
tp1897
asS'word-processing'
p1898
(lp1899
(I0
I1
I2
tp1900
asS'dominant'
p1901
(lp1902
(I4
I1
I2
tp1903
asS'meanwhile'
p1904
(lp1905
(I2
I1
I0
tp1906
asS'dependent'
p1907
(lp1908
(I4
I1
I0
tp1909
a(I4
I1
I2
tp1910
asS'compiled'
p1911
(lp1912
(I1
I1
I1
tp1913
asS'morphological'
p1914
(lp1915
(I2
I1
I2
tp1916
asS'overall'
p1917
(lp1918
(I1
I1
I2
tp1919
asS'weizmann'
p1920
(lp1921
(I4
I1
I0
tp1922
asS'next'
p1923
(lp1924
(I3
I1
I2
tp1925
asS'ananda'
p1926
(lp1927
(I4
I1
I0
tp1928
asS'bridge'
p1929
(lp1930
(I3
I1
I1
tp1931
asS'hollerith'
p1932
(lp1933
(I0
I2
I0
tp1934
asS'procedures'
p1935
(lp1936
(I4
I1
I0
tp1937
asS'areas'
p1938
(lp1939
(I3
I1
I0
tp1940
asS'writings'
p1941
(lp1942
(I2
I1
I0
tp1943
asS'evolution'
p1944
(lp1945
(I2
I1
I0
tp1946
asS'resource'
p1947
(lp1948
(I1
I1
I0
tp1949
asS'countries'
p1950
(lp1951
(I3
I1
I0
tp1952
asS'ever'
p1953
(lp1954
(I2
I1
I3
tp1955
asS'naur'
p1956
(lp1957
(I3
I2
I0
tp1958
asS'fixes'
p1959
(lp1960
(I1
I1
I0
tp1961
asS'dijkstra'
p1962
(lp1963
(I3
I1
I0
tp1964
asS'microscopy'
p1965
(lp1966
(I2
I1
I0
tp1967
asS'method'
p1968
(lp1969
(I4
I1
I0
tp1970
asS'influenced'
p1971
(lp1972
(I2
I1
I1
tp1973
a(I3
I1
I1
tp1974
asS'microscope'
p1975
(lp1976
(I2
I1
I0
tp1977
asS'experiments'
p1978
(lp1979
(I2
I1
I0
tp1980
asS'common'
p1981
(lp1982
(I2
I1
I2
tp1983
a(I3
I1
I2
tp1984
asS'physicians'
p1985
(lp1986
(I2
I1
I0
tp1987
asS'contain'
p1988
(lp1989
(I2
I1
I1
tp1990
asS'analytical'
p1991
(lp1992
(I0
I2
I2
tp1993
asS'x'
(lp1994
(I1
I1
I0
tp1995
asS'fixed'
p1996
(lp1997
(I2
I1
I1
tp1998
asS'automatic'
p1999
(lp2000
(I0
I1
I2
tp2001
a(I3
I1
I2
tp2002
asS'wrote'
p2003
(lp2004
(I2
I1
I1
tp2005
asS'europe'
p2006
(lp2007
(I3
I1
I0
tp2008
asS'set'
p2009
(lp2010
(I1
I1
I0
tp2011
asS'nitrogen'
p2012
(lp2013
(I4
I1
I0
tp2014
asS'systematics'
p2015
(lp2016
(I2
I1
I0
tp2017
asS'petroleum-derived'
p2018
(lp2019
(I4
I1
I2
tp2020
asS'testing'
p2021
(lp2022
(I1
I1
I0
tp2023
asS'humans'
p2024
(lp2025
(I4
I2
I0
tp2026
asS'lamarck'
p2027
(lp2028
(I2
I3
I0
tp2029
asS'resist'
p2030
(lp2031
(I0
I1
I1
tp2032
asS'culture'
p2033
(lp2034
(I4
I3
I0
tp2035
asS'computer'
p2036
(lp2037
(I0
I4
I0
tp2038
a(I3
I12
I0
tp2039
a(I3
I4
I0
tp2040
asS'persian'
p2041
(lp2042
(I2
I1
I0
tp2043
asS'are'
p2044
(lp2045
(I1
I4
I1
tp2046
a(I2
I2
I1
tp2047
a(I3
I1
I1
tp2048
a(I4
I4
I1
tp2049
asS'leclerc'
p2050
(lp2051
(I2
I1
I0
tp2052
asS'nations'
p2053
(lp2054
(I4
I1
I0
tp2055
asS'greece'
p2056
(lp2057
(I2
I1
I0
tp2058
asS'analog'
p2059
(lp2060
(I0
I1
I0
tp2061
asS'techniques'
p2062
(lp2063
(I2
I1
I0
tp2064
asS'closer'
p2065
(lp2066
(I3
I1
I2
tp2067
asS'project'
p2068
(lp2069
(I2
I2
I0
tp2070
a(I2
I1
I0
tp2071
asS'draws'
p2072
(lp2073
(I4
I1
I1
tp2074
asS'biofuel'
p2075
(lp2076
(I4
I1
I0
tp2077
asS'farmers'
p2078
(lp2079
(I4
I2
I0
tp2080
asS'ways'
p2081
(lp2082
(I4
I1
I0
tp2083
asS'currently'
p2084
(lp2085
(I1
I1
I0
tp2086
a(I1
I1
I3
tp2087
asS'educationally'
p2088
(lp2089
(I3
I1
I3
tp2090
asS'artificial'
p2091
(lp2092
(I2
I1
I2
tp2093
a(I4
I1
I0
tp2094
asS'tend'
p2095
(lp2096
(I3
I1
I0
tp2097
a(I3
I1
I1
tp2098
asS'libraries'
p2099
(lp2100
(I1
I1
I0
tp2101
asS'originated'
p2102
(lp2103
(I2
I1
I1
tp2104
asS'outside'
p2105
(lp2106
(I4
I1
I2
tp2107
asS'various'
p2108
(lp2109
(I3
I1
I2
tp2110
asS'alignment'
p2111
(lp2112
(I3
I1
I0
tp2113
asS'swammerdam'
p2114
(lp2115
(I2
I1
I0
tp2116
asS'warren'
p2117
(lp2118
(I2
I1
I0
tp2119
asS'approach'
p2120
(lp2121
(I2
I2
I0
tp2122
asS'email'
p2123
(lp2124
(I1
I2
I0
tp2125
asS'discovery'
p2126
(lp2127
(I2
I2
I0
tp2128
asS'available'
p2129
(lp2130
(I1
I2
I2
tp2131
a(I4
I1
I2
tp2132
asS'muslim'
p2133
(lp2134
(I2
I1
I0
tp2135
asS'terms'
p2136
(lp2137
(I3
I1
I0
tp2138
a(I4
I1
I0
tp2139
asS'august'
p2140
(lp2141
(I1
I1
I0
tp2142
asS'opening'
p2143
(lp2144
(I0
I1
I1
tp2145
asS'importance'
p2146
(lp2147
(I2
I1
I0
tp2148
asS'commercial'
p2149
(lp2150
(I3
I1
I2
tp2151
a(I4
I1
I2
tp2152
asS'screen'
p2153
(lp2154
(I1
I1
I0
tp2155
asS'incarnation'
p2156
(lp2157
(I0
I1
I0
tp2158
asS'packaged'
p2159
(lp2160
(I1
I1
I1
tp2161
asS'however'
p2162
(lp2163
(I0
I1
I0
tp2164
a(I2
I2
I0
tp2165
a(I2
I1
I3
tp2166
a(I3
I1
I0
tp2167
asS'grow'
p2168
(lp2169
(I2
I1
I0
tp2170
a(I4
I1
I1
tp2171
asS'key'
p2172
(lp2173
(I2
I1
I2
tp2174
asS'natur'
p2175
(lp2176
(I2
I1
I0
tp2177
asS'news'
p2178
(lp2179
(I4
I1
I0
tp2180
asS'come'
p2181
(lp2182
(I2
I1
I1
tp2183
asS'problem'
p2184
(lp2185
(I0
I1
I0
tp2186
asS'david'
p2187
(lp2188
(I3
I1
I0
tp2189
asS'suggested'
p2190
(lp2191
(I3
I1
I0
tp2192
a(I3
I3
I1
tp2193
asS'both'
p2194
(lp2195
(I3
I1
I0
tp2196
asS'dates'
p2197
(lp2198
(I2
I1
I0
tp2199
asS'improved'
p2200
(lp2201
(I1
I1
I1
tp2202
a(I2
I1
I1
tp2203
a(I4
I1
I1
tp2204
asS'pests'
p2205
(lp2206
(I4
I2
I0
tp2207
asS'met'
p2208
(lp2209
(I0
I1
I1
tp2210
a(I4
I1
I1
tp2211
asS'influential'
p2212
(lp2213
(I0
I2
I2
tp2214
asS'dalvik'
p2215
(lp2216
(I1
I1
I0
tp2217
asS'taking'
p2218
(lp2219
(I3
I1
I1
tp2220
asS'according'
p2221
(lp2222
(I1
I1
I0
tp2223
a(I4
I1
I1
tp2224
asS'turingineer'
p2225
(lp2226
(I3
I1
I0
tp2227
asS'etc'
p2228
(lp2229
(I1
I1
I0
tp2230
asS's'
(lp2231
(I1
I1
I0
tp2232
a(I4
I1
I1
tp2233
asS'became'
p2234
(lp2235
(I0
I1
I1
tp2236
a(I2
I1
I1
tp2237
a(I4
I2
I1
tp2238
asS'/data/app'
p2239
(lp2240
(I1
I1
I2
tp2241
asS'logic'
p2242
(lp2243
(I3
I1
I0
tp2244
asS'focused'
p2245
(lp2246
(I2
I1
I1
tp2247
asS'contribution'
p2248
(lp2249
(I2
I1
I0
tp2250
asS'genus'
p2251
(lp2252
(I4
I1
I0
tp2253
asS'strongly'
p2254
(lp2255
(I3
I1
I3
tp2256
asS'large-scale'
p2257
(lp2258
(I0
I1
I0
tp2259
asS'reasons'
p2260
(lp2261
(I1
I1
I0
tp2262
asS'ca'
p2263
(lp2264
(I2
I2
I0
tp2265
asS'period'
p2266
(lp2267
(I4
I1
I0
tp2268
asS'community'
p2269
(lp2270
(I1
I1
I0
tp2271
asS'influencing'
p2272
(lp2273
(I4
I1
I1
tp2274
asS'heredity'
p2275
(lp2276
(I2
I1
I0
tp2277
asS'viruses'
p2278
(lp2279
(I2
I1
I0
tp2280
asS'adding'
p2281
(lp2282
(I4
I1
I1
tp2283
asS'genes'
p2284
(lp2285
(I2
I1
I0
tp2286
asS'linux'
p2287
(lp2288
(I1
I2
I0
tp2289
asS'\x99'
(lp2290
(I4
I1
I0
tp2291
asS'mated'
p2292
(lp2293
(I4
I1
I1
tp2294
asS'improvement'
p2295
(lp2296
(I2
I1
I0
tp2297
asS'qemu'
p2298
(lp2299
(I1
I1
I0
tp2300
asS'chakrabarty'
p2301
(lp2302
(I4
I2
I0
tp2303
asS'forms'
p2304
(lp2305
(I2
I1
I0
tp2306
a(I4
I2
I0
tp2307
asS'java'
p2308
(lp2309
(I1
I2
I0
tp2310
asS'enhancements'
p2311
(lp2312
(I1
I1
I0
tp2313
asS'basis'
p2314
(lp2315
(I0
I1
I0
tp2316
asS'\xa9'
(lp2317
(I2
I1
I0
tp2318
asS'create'
p2319
(lp2320
(I1
I1
I1
tp2321
asS'muddied'
p2322
(lp2323
(I3
I1
I1
tp2324
asS'oder'
p2325
(lp2326
(I2
I1
I0
tp2327
asS'been'
p2328
(lp2329
(I0
I1
I1
tp2330
a(I1
I1
I1
tp2331
a(I2
I4
I1
tp2332
a(I3
I3
I1
tp2333
a(I4
I2
I1
tp2334
asS'appears'
p2335
(lp2336
(I2
I1
I1
tp2337
asS'genetic'
p2338
(lp2339
(I2
I1
I2
tp2340
a(I4
I1
I2
tp2341
asS'much'
p2342
(lp2343
(I3
I1
I2
tp2344
a(I3
I1
I3
tp2345
a(I4
I1
I3
tp2346
asS'growth'
p2347
(lp2348
(I2
I1
I0
tp2349
asS'treat'
p2350
(lp2351
(I4
I1
I1
tp2352
asS'interest'
p2353
(lp2354
(I2
I1
I0
tp2355
asS'basic'
p2356
(lp2357
(I2
I3
I2
tp2358
a(I4
I1
I2
tp2359
asS'tutorials'
p2360
(lp2361
(I1
I1
I0
tp2362
asS'microscopic'
p2363
(lp2364
(I2
I2
I2
tp2365
asS'utilizing'
p2366
(lp2367
(I4
I1
I1
tp2368
asS'improve'
p2369
(lp2370
(I4
I1
I1
tp2371
asS'biomedical'
p2372
(lp2373
(I4
I1
I0
tp2374
asS'engine'
p2375
(lp2376
(I0
I2
I0
tp2377
asS'life'
p2378
(lp2379
(I2
I5
I0
tp2380
a(I4
I2
I0
tp2381
asS'citation'
p2382
(lp2383
(I4
I1
I0
tp2384
asS'diversity'
p2385
(lp2386
(I2
I2
I0
tp2387
a(I4
I1
I0
tp2388
asS'patented'
p2389
(lp2390
(I4
I1
I1
tp2391
asS'formed'
p2392
(lp2393
(I3
I1
I1
tp2394
asS'complementary'
p2395
(lp2396
(I3
I1
I2
tp2397
asS'essentially'
p2398
(lp2399
(I2
I1
I3
tp2400
asS'observers'
p2401
(lp2402
(I3
I1
I0
tp2403
asS'usage'
p2404
(lp2405
(I4
I1
I0
tp2406
asS'dramatic'
p2407
(lp2408
(I2
I1
I2
tp2409
asS'demand'
p2410
(lp2411
(I4
I2
I0
tp2412
asS'reinhold'
p2413
(lp2414
(I2
I1
I0
tp2415
asS'general'
p2416
(lp2417
(I2
I1
I2
tp2418
a(I3
I1
I2
tp2419
a(I4
I1
I0
tp2420
asS'altered'
p2421
(lp2422
(I4
I1
I1
tp2423
asS'present'
p2424
(lp2425
(I2
I1
I2
tp2426
asS'case'
p2427
(lp2428
(I1
I1
I0
tp2429
a(I4
I1
I0
tp2430
asS'physician'
p2431
(lp2432
(I2
I1
I0
tp2433
asS'traced'
p2434
(lp2435
(I2
I1
I1
tp2436
asS'being'
p2437
(lp2438
(I2
I1
I1
tp2439
a(I3
I1
I1
tp2440
asS'virchow'
p2441
(lp2442
(I2
I1
I0
tp2443
asS'these'
p2444
(lp2445
(I0
I1
I0
tp2446
a(I2
I1
I0
tp2447
asS'crossed'
p2448
(lp2449
(I3
I1
I1
tp2450
asS'plugin'
p2451
(lp2452
(I1
I1
I0
tp2453
asS'empirical'
p2454
(lp2455
(I2
I1
I2
tp2456
asS'employ'
p2457
(lp2458
(I4
I1
I0
tp2459
asS'resistant'
p2460
(lp2461
(I4
I1
I2
tp2462
asS'while'
p2463
(lp2464
(I2
I1
I0
tp2465
asS'suffix'
p2466
(lp2467
(I2
I1
I0
tp2468
asS'grains'
p2469
(lp2470
(I4
I3
I0
tp2471
asS'vastly'
p2472
(lp2473
(I2
I1
I3
tp2474
asS'many'
p2475
(lp2476
(I0
I1
I2
tp2477
a(I3
I1
I2
tp2478
a(I4
I1
I2
tp2479
asS'promoted'
p2480
(lp2481
(I2
I1
I1
tp2482
asS'medicinal'
p2483
(lp2484
(I4
I1
I2
tp2485
asS'cracked'
p2486
(lp2487
(I2
I1
I1
tp2488
asS'antony'
p2489
(lp2490
(I2
I1
I0
tp2491
asS'inspired'
p2492
(lp2493
(I2
I1
I1
tp2494
asS'launched'
p2495
(lp2496
(I2
I1
I1
tp2497
asS'bioengineering'
p2498
(lp2499
(I4
I1
I1
tp2500
asS'economics'
p2501
(lp2502
(I3
I1
I0
tp2503
asS'orientation'
p2504
(lp2505
(I3
I1
I0
tp2506
asS'century'
p2507
(lp2508
(I0
I3
I0
tp2509
a(I2
I1
I0
tp2510
a(I4
I1
I0
tp2511
asS'best'
p2512
(lp2513
(I4
I1
I2
tp2514
asS'characteristics'
p2515
(lp2516
(I2
I1
I0
tp2517
a(I4
I2
I0
tp2518
asS'is'
p2519
(lp2520
(I0
I2
I1
tp2521
a(I1
I2
I1
tp2522
a(I2
I4
I1
tp2523
a(I3
I13
I1
tp2524
a(I4
I12
I1
tp2525
asS'it'
p2526
(lp2527
(I2
I1
I0
tp2528
a(I4
I1
I0
tp2529
asS'leavened'
p2530
(lp2531
(I4
I1
I1
tp2532
asS'microbiological'
p2533
(lp2534
(I4
I1
I2
tp2535
asS'hardware'
p2536
(lp2537
(I3
I1
I0
tp2538
asS'middle'
p2539
(lp2540
(I2
I1
I0
tp2541
asS'itself'
p2542
(lp2543
(I2
I1
I0
tp2544
asS'punched'
p2545
(lp2546
(I0
I1
I1
tp2547
a(I0
I3
I2
tp2548
asS'in'
p2549
(lp2550
(I0
I2
I0
tp2551
a(I2
I3
I0
tp2552
a(I4
I7
I0
tp2553
asS'claimed'
p2554
(lp2555
(I3
I1
I1
tp2556
asS'technology'
p2557
(lp2558
(I3
I1
I0
tp2559
a(I4
I2
I0
tp2560
asS'containing'
p2561
(lp2562
(I4
I1
I1
tp2563
asS'develop'
p2564
(lp2565
(I2
I1
I1
tp2566
a(I4
I1
I1
tp2567
asS'since'
p2568
(lp2569
(I1
I1
I0
tp2570
asS'yeasts'
p2571
(lp2572
(I4
I1
I0
tp2573
asS'media'
p2574
(lp2575
(I0
I1
I0
tp2576
asS'began'
p2577
(lp2578
(I2
I2
I1
tp2579
asS'amount'
p2580
(lp2581
(I3
I1
I0
tp2582
asS'same'
p2583
(lp2584
(I2
I1
I2
tp2585
a(I3
I1
I2
tp2586
a(I4
I2
I2
tp2587
asS'clearly'
p2588
(lp2589
(I4
I1
I3
tp2590
asS'emphasize'
p2591
(lp2592
(I3
I1
I1
tp2593
asS'widely'
p2594
(lp2595
(I0
I1
I3
tp2596
a(I1
I1
I3
tp2597
asS'biologists'
p2598
(lp2599
(I2
I2
I0
tp2600
asS'android'
p2601
(lp2602
(I1
I16
I0
tp2603
asS'several'
p2604
(lp2605
(I1
I1
I2
tp2606
a(I3
I1
I2
tp2607
asS'computer-related'
p2608
(lp2609
(I3
I1
I2
tp2610
asS'development'
p2611
(lp2612
(I1
I3
I0
tp2613
a(I1
I6
I0
tp2614
a(I2
I3
I0
tp2615
a(I4
I1
I0
tp2616
asS'neolithic'
p2617
(lp2618
(I4
I1
I0
tp2619
asS'extended'
p2620
(lp2621
(I1
I1
I1
tp2622
a(I2
I1
I1
tp2623
asS'inadvertently'
p2624
(lp2625
(I4
I1
I3
tp2626
asS'comprehensive'
p2627
(lp2628
(I1
I1
I2
tp2629
asS'downloaded'
p2630
(lp2631
(I1
I2
I1
tp2632
asS'numerical'
p2633
(lp2634
(I3
I1
I2
tp2635
asS'kit'
p2636
(lp2637
(I1
I1
I0
tp2638
a(I1
I1
I0
tp2639
asS'scientist'
p2640
(lp2641
(I3
I2
I0
tp2642
asS'running'
p2643
(lp2644
(I1
I1
I1
tp2645
asS'theorized'
p2646
(lp2647
(I4
I1
I1
tp2648
asS'uses'
p2649
(lp2650
(I0
I1
I1
tp2651
a(I4
I2
I1
tp2652
asS'user'
p2653
(lp2654
(I1
I1
I0
tp2655
asS'ernst'
p2656
(lp2657
(I4
I1
I0
tp2658
asS'scholars'
p2659
(lp2660
(I2
I2
I0
tp2661
asS'recent'
p2662
(lp2663
(I2
I1
I2
tp2664
asS'kurdish'
p2665
(lp2666
(I2
I1
I0
tp2667
asS'older'
p2668
(lp2669
(I1
I1
I0
tp2670
a(I1
I2
I2
tp2671
asS'nevertheless'
p2672
(lp2673
(I0
I1
I0
tp2674
asS'settled'
p2675
(lp2676
(I0
I1
I1
tp2677
asS'well'
p2678
(lp2679
(I1
I1
I3
tp2680
a(I2
I1
I3
tp2681
a(I4
I2
I3
tp2682
asS'analysis'
p2683
(lp2684
(I2
I1
I0
tp2685
asS'biogeographical'
p2686
(lp2687
(I2
I1
I2
tp2688
asS'thought'
p2689
(lp2690
(I2
I1
I0
tp2691
a(I2
I1
I1
tp2692
a(I4
I4
I1
tp2693
asS'academic'
p2694
(lp2695
(I3
I1
I2
tp2696
asS'materials'
p2697
(lp2698
(I4
I1
I0
tp2699
asS'command'
p2700
(lp2701
(I1
I1
I0
tp2702
asS'components'
p2703
(lp2704
(I1
I1
I0
tp2705
asS'inability'
p2706
(lp2707
(I0
I1
I0
tp2708
asS'the'
p2709
(lp2710
(I1
I4
I0
tp2711
a(I2
I2
I0
tp2712
a(I3
I3
I0
tp2713
a(I4
I3
I0
tp2714
asS'bodies'
p2715
(lp2716
(I2
I1
I0
tp2717
asS'latest'
p2718
(lp2719
(I1
I1
I2
tp2720
asS'restore'
p2721
(lp2722
(I4
I1
I1
tp2723
asS'traditions'
p2724
(lp2725
(I2
I1
I0
tp2726
asS'proposed'
p2727
(lp2728
(I3
I1
I0
tp2729
a(I4
I1
I1
tp2730
asS'heavily'
p2731
(lp2732
(I2
I1
I3
tp2733
asS'increasingly'
p2734
(lp2735
(I0
I1
I3
tp2736
a(I4
I1
I3
tp2737
asS'able'
p2738
(lp2739
(I4
I1
I2
tp2740
asS'deployment'
p2741
(lp2742
(I3
I2
I0
tp2743
asS'livestock'
p2744
(lp2745
(I4
I1
I0
tp2746
asS'inception'
p2747
(lp2748
(I4
I1
I0
tp2749
asS'stored'
p2750
(lp2751
(I1
I1
I1
tp2752
asS'thanks'
p2753
(lp2754
(I2
I1
I0
tp2755
asS'human'
p2756
(lp2757
(I2
I1
I0
tp2758
a(I2
I2
I0
tp2759
a(I2
I1
I2
tp2760
a(I4
I1
I2
tp2761
asS'world'
p2762
(lp2763
(I2
I1
I0
tp2764
a(I4
I1
I0
tp2765
asS'biologist'
p2766
(lp2767
(I2
I1
I0
tp2768
asS'alternative'
p2769
(lp2770
(I3
I1
I0
tp2771
asS'embryology'
p2772
(lp2773
(I4
I1
I0
tp2774
asS'theophrastus'
p2775
(lp2776
(I2
I1
I0
tp2777
asS'discipline'
p2778
(lp2779
(I3
I1
I0
tp2780
asS'tables'
p2781
(lp2782
(I0
I1
I0
tp2783
asS'adt'
p2784
(lp2785
(I1
I1
I0
tp2786
asS'conclusions'
p2787
(lp2788
(I2
I1
I0
tp2789
asS'thinking'
p2790
(lp2791
(I2
I2
I0
tp2792
asS'regarded'
p2793
(lp2794
(I0
I1
I1
tp2795
asS'supply'
p2796
(lp2797
(I4
I1
I0
tp2798
asS'had'
p2799
(lp2800
(I0
I2
I1
tp2801
a(I2
I1
I1
tp2802
a(I4
I1
I1
tp2803
asS'desktop'
p2804
(lp2805
(I1
I1
I0
tp2806
asS'drew'
p2807
(lp2808
(I2
I1
I0
tp2809
asS'friedrich'
p2810
(lp2811
(I2
I1
I0
tp2812
asS'cue'
p2813
(lp2814
(I3
I1
I0
tp2815
asS'treatment'
p2816
(lp2817
(I3
I1
I0
tp2818
asS'technological'
p2819
(lp2820
(I4
I1
I2
tp2821
asS'necessarily'
p2822
(lp2823
(I3
I1
I3
tp2824
a(I4
I1
I3
tp2825
asS'role'
p2826
(lp2827
(I0
I1
I0
tp2828
a(I4
I1
I0
tp2829
asS'har'
p2830
(lp2831
(I2
I1
I0
tp2832
asS'has'
p2833
(lp2834
(I1
I1
I1
tp2835
a(I2
I1
I1
tp2836
a(I3
I4
I1
tp2837
a(I4
I3
I1
tp2838
asS'gave'
p2839
(lp2840
(I0
I1
I1
tp2841
asS'kingdom'
p2842
(lp2843
(I4
I1
I0
tp2844
asS'aspects'
p2845
(lp2846
(I3
I1
I0
tp2847
asS'format'
p2848
(lp2849
(I1
I1
I0
tp2850
asS'linguistics'
p2851
(lp2852
(I3
I1
I0
tp2853
asS'advances'
p2854
(lp2855
(I2
I1
I0
tp2856
a(I2
I1
I0
tp2857
a(I4
I1
I0
tp2858
asS'hydrog'
p2859
(lp2860
(I2
I1
I0
tp2861
asS'early'
p2862
(lp2863
(I2
I2
I2
tp2864
a(I2
I1
I3
tp2865
a(I3
I1
I0
tp2866
a(I3
I1
I2
tp2867
a(I4
I1
I2
tp2868
a(I4
I1
I3
tp2869
asS'possibly'
p2870
(lp2871
(I3
I1
I3
tp2872
asS'fusion'
p2873
(lp2874
(I0
I1
I0
tp2875
asS'marked'
p2876
(lp2877
(I2
I1
I1
tp2878
asS'vacuum'
p2879
(lp2880
(I0
I1
I0
tp2881
asS'using'
p2882
(lp2883
(I1
I1
I1
tp2884
a(I4
I4
I1
tp2885
asS'desperately'
p2886
(lp2887
(I4
I1
I3
tp2888
asS'accepted'
p2889
(lp2890
(I2
I1
I1
tp2891
asS'formal'
p2892
(lp2893
(I2
I1
I2
tp2894
asS'datalogy'
p2895
(lp2896
(I3
I1
I0
tp2897
a(I3
I2
I0
tp2898
asS'as'
p2899
(lp2900
(I4
I2
I3
tp2901
asS'cognitive'
p2902
(lp2903
(I3
I1
I2
tp2904
asS'success'
p2905
(lp2906
(I4
I1
I0
tp2907
asS'french'
p2908
(lp2909
(I3
I1
I2
tp2910
asS'communications'
p2911
(lp2912
(I3
I1
I0
tp2913
asS'boolean'
p2914
(lp2915
(I0
I1
I0
tp2916
asS'yields'
p2917
(lp2918
(I4
I1
I0
tp2919
asS'become'
p2920
(lp2921
(I4
I1
I1
tp2922
asS'security'
p2923
(lp2924
(I1
I1
I0
tp2925
asS'works'
p2926
(lp2927
(I2
I3
I0
tp2928
asS'accessible'
p2929
(lp2930
(I1
I1
I2
tp2931
asS'worldwide'
p2932
(lp2933
(I4
I1
I0
tp2934
asS'google'
p2935
(lp2936
(I1
I1
I0
tp2937
asS'often'
p2938
(lp2939
(I2
I1
I3
tp2940
a(I3
I2
I3
tp2941
asS'classical'
p2942
(lp2943
(I2
I1
I2
tp2944
asS'people'
p2945
(lp2946
(I0
I1
I0
tp2947
asS'soma'
p2948
(lp2949
(I4
I1
I0
tp2950
asS'creation'
p2951
(lp2952
(I0
I1
I0
tp2953
asS'back'
p2954
(lp2955
(I2
I2
I3
tp2956
a(I4
I1
I3
tp2957
asS'platforms'
p2958
(lp2959
(I1
I2
I0
tp2960
asS'babbage'
p2961
(lp2962
(I0
I3
I0
tp2963
asS'comptologist'
p2964
(lp2965
(I3
I1
I0
tp2966
asS'home'
p2967
(lp2968
(I1
I1
I0
tp2969
asS'peter'
p2970
(lp2971
(I3
I2
I0
tp2972
asS'holley'
p2973
(lp2974
(I2
I1
I0
tp2975
asS'provided'
p2976
(lp2977
(I0
I1
I1
tp2978
a(I1
I1
I1
tp2979
asS'throughout'
p2980
(lp2981
(I4
I1
I0
tp2982
asS'genetics'
p2983
(lp2984
(I2
I2
I0
tp2985
a(I4
I2
I0
tp2986
asS'bioproducts'
p2987
(lp2988
(I4
I1
I0
tp2989
asS'for'
p2990
(lp2991
(I3
I1
I0
tp2992
a(I4
I2
I0
tp2993
asS'plants'
p2994
(lp2995
(I4
I3
I0
tp2996
asS'broad'
p2997
(lp2998
(I4
I1
I2
tp2999
asS'tube'
p3000
(lp3001
(I0
I1
I0
tp3002
asS'though'
p3003
(lp3004
(I2
I1
I0
tp3005
asS'extensively'
p3006
(lp3007
(I2
I1
I3
tp3008
asS'philosopher'
p3009
(lp3010
(I2
I1
I0
tp3011
asS'tabulator'
p3012
(lp3013
(I0
I1
I0
tp3014
asS'epistemologist'
p3015
(lp3016
(I3
I1
I0
tp3017
asS'does'
p3018
(lp3019
(I3
I1
I1
tp3020
asS'select'
p3021
(lp3022
(I4
I1
I1
tp3023
asS'ageing'
p3024
(lp3025
(I4
I1
I1
tp3026
asS'hippocrates'
p3027
(lp3028
(I2
I1
I0
tp3029
asS'schleiden'
p3030
(lp3031
(I2
I1
I0
tp3032
asS'be'
p3033
(lp3034
(I0
I1
I1
tp3035
a(I1
I1
I1
tp3036
a(I2
I1
I1
tp3037
a(I3
I1
I1
tp3038
a(I4
I3
I1
tp3039
asS'biology'
p3040
(lp3041
(I2
I1
I0
tp3042
a(I2
I7
I0
tp3043
a(I4
I4
I0
tp3044
asS'aristotelian'
p3045
(lp3046
(I2
I1
I0
tp3047
asS'scientific'
p3048
(lp3049
(I0
I1
I2
tp3050
a(I2
I1
I2
tp3051
a(I3
I3
I2
tp3052
a(I4
I1
I2
tp3053
asS'energy'
p3054
(lp3055
(I4
I1
I0
tp3056
asS'bc'
p3057
(lp3058
(I2
I4
I0
tp3059
asS'journal'
p3060
(lp3061
(I3
I1
I0
tp3062
asS'processing'
p3063
(lp3064
(I0
I1
I0
tp3065
a(I0
I1
I1
tp3066
asS'use'
p3067
(lp3068
(I0
I1
I0
tp3069
a(I1
I2
I1
tp3070
a(I2
I1
I0
tp3071
a(I3
I1
I1
tp3072
a(I4
I6
I0
tp3073
a(I4
I2
I1
tp3074
asS'defines'
p3075
(lp3076
(I4
I1
I1
tp3077
asS'lyceum'
p3078
(lp3079
(I2
I1
I0
tp3080
asS'step'
p3081
(lp3082
(I2
I1
I0
tp3083
asS'relationship'
p3084
(lp3085
(I3
I3
I0
tp3086
asS'although'
p3087
(lp3088
(I2
I1
I0
tp3089
a(I4
I1
I0
tp3090
asS'sweetest'
p3091
(lp3092
(I4
I1
I2
tp3093
asS'from'
p3094
(lp3095
(I2
I1
I0
tp3096
asS'manufacturing'
p3097
(lp3098
(I4
I2
I0
tp3099
asS'by'
p3100
(lp3101
(I0
I1
I0
tp3102
a(I4
I2
I0
tp3103
asS'teleprinter'
p3104
(lp3105
(I0
I1
I0
tp3106
asS'gained'
p3107
(lp3108
(I4
I1
I1
tp3109
asS'on'
p3110
(lp3111
(I1
I3
I0
tp3112
asS'census'
p3113
(lp3114
(I0
I1
I0
tp3115
asS'central'
p3116
(lp3117
(I2
I1
I2
tp3118
asS'consumption'
p3119
(lp3120
(I4
I1
I0
tp3121
asS'origins'
p3122
(lp3123
(I2
I1
I0
tp3124
asS'package'
p3125
(lp3126
(I1
I2
I0
tp3127
asS'of'
p3128
(lp3129
(I2
I1
I0
tp3130
asS'industry'
p3131
(lp3132
(I0
I1
I0
tp3133
a(I4
I3
I0
tp3134
asS'months'
p3135
(lp3136
(I3
I1
I0
tp3137
asS'entrants'
p3138
(lp3139
(I1
I1
I0
tp3140
asS'acm'
p3141
(lp3142
(I3
I1
I0
tp3143
asS'thousands'
p3144
(lp3145
(I4
I1
I0
tp3146
asS'practical'
p3147
(lp3148
(I0
I1
I2
tp3149
a(I3
I1
I2
tp3150
asS'magazine'
p3151
(lp3152
(I0
I1
I0
tp3153
asS'seeds'
p3154
(lp3155
(I4
I1
I0
tp3156
asS'medical/health'
p3157
(lp3158
(I4
I1
I2
tp3159
asS'lacked'
p3160
(lp3161
(I0
I1
I1
tp3162
asS'ide'
p3163
(lp3164
(I1
I1
I0
tp3165
asS'os'
p3166
(lp3167
(I1
I2
I0
tp3168
asS'software'
p3169
(lp3170
(I1
I2
I0
tp3171
a(I3
I3
I0
tp3172
asS'mathematical'
p3173
(lp3174
(I3
I3
I2
tp3175
asS'own'
p3176
(lp3177
(I2
I1
I2
tp3178
asS'variations'
p3179
(lp3180
(I2
I1
I0
tp3181
asS'strangeness'
p3182
(lp3183
(I2
I1
I0
tp3184
asS'interfacing'
p3185
(lp3186
(I4
I1
I0
tp3187
asS'political'
p3188
(lp3189
(I3
I1
I2
tp3190
asS'causation'
p3191
(lp3192
(I2
I1
I0
tp3193
asS'helical'
p3194
(lp3195
(I2
I1
I2
tp3196
asS'functional'
p3197
(lp3198
(I2
I1
I2
tp3199
asS'intellectual'
p3200
(lp3201
(I4
I1
I2
tp3202
asS'son'
p3203
(lp3204
(I0
I1
I0
tp3205
asS'globalized'
p3206
(lp3207
(I2
I1
I2
tp3208
asS'because'
p3209
(lp3210
(I3
I1
I0
tp3211
asS'rising'
p3212
(lp3213
(I4
I1
I0
tp3214
asS'lactic'
p3215
(lp3216
(I4
I1
I0
tp3217
asS'zoology'
p3218
(lp3219
(I2
I1
I0
tp3220
asS'accumulated'
p3221
(lp3222
(I2
I1
I1
tp3223
asS'refined'
p3224
(lp3225
(I4
I1
I1
tp3226
asS'quickly'
p3227
(lp3228
(I2
I1
I3
tp3229
asS'category'
p3230
(lp3231
(I3
I1
I0
tp3232
asS'methods'
p3233
(lp3234
(I4
I3
I0
tp3235
asS'pharmaceutical'
p3236
(lp3237
(I4
I1
I2
tp3238
asS'linnaeus'
p3239
(lp3240
(I2
I1
I0
tp3241
asS'van'
p3242
(lp3243
(I2
I1
I0
tp3244
asS'nirenberg'
p3245
(lp3246
(I2
I1
I0
tp3247
asS'area'
p3248
(lp3249
(I1
I1
I0
tp3250
asS'estimating'
p3251
(lp3252
(I4
I1
I0
tp3253
asS'museum'
p3254
(lp3255
(I0
I1
I0
tp3256
asS'initial'
p3257
(lp3258
(I0
I1
I2
tp3259
asS'legislation'
p3260
(lp3261
(I4
I1
I0
tp3262
asS'-logia'
p3263
(lp3264
(I2
I1
I0
tp3265
asS'philosophie'
p3266
(lp3267
(I2
I1
I0
tp3268
asS'continental'
p3269
(lp3270
(I3
I1
I2
tp3271
asS'bios'
p3272
(lp3273
(I2
I1
I0
tp3274
asS'revolves'
p3275
(lp3276
(I3
I1
I1
tp3277
asS'downloadable'
p3278
(lp3279
(I1
I1
I2
tp3280
asS'editor'
p3281
(lp3282
(I1
I1
I0
tp3283
asS'frustration'
p3284
(lp3285
(I1
I1
I0
tp3286
asS'cultures'
p3287
(lp3288
(I4
I1
I0
tp3289
a(I4
I1
I0
tp3290
asS'breeding'
p3291
(lp3292
(I4
I2
I0
tp3293
a(I4
I2
I1
tp3294
asS'was'
p3295
(lp3296
(I0
I5
I1
tp3297
a(I1
I6
I1
tp3298
a(I2
I11
I1
tp3299
a(I3
I3
I1
tp3300
a(I4
I3
I1
tp3301
asS'war'
p3302
(lp3303
(I4
I1
I0
tp3304
asS'blueprint'
p3305
(lp3306
(I0
I1
I0
tp3307
asS'medium'
p3308
(lp3309
(I0
I1
I0
tp3310
asS'form'
p3311
(lp3312
(I2
I1
I0
tp3313
a(I4
I1
I0
tp3314
asS'oil'
p3315
(lp3316
(I4
I2
I0
tp3317
asS'sophisticated'
p3318
(lp3319
(I0
I1
I2
tp3320
asS'philosophers'
p3321
(lp3322
(I2
I1
I0
tp3323
asS'expected'
p3324
(lp3325
(I4
I2
I1
tp3326
asS'goals'
p3327
(lp3328
(I3
I1
I0
tp3329
asS'survived'
p3330
(lp3331
(I2
I1
I1
tp3332
asS'automated'
p3333
(lp3334
(I0
I1
I1
tp3335
asS'line'
p3336
(lp3337
(I1
I1
I0
tp3338
asS'highest'
p3339
(lp3340
(I4
I1
I2
tp3341
asS'bug'
p3342
(lp3343
(I1
I1
I0
tp3344
asS'sdk'
p3345
(lp3346
(I1
I8
I0
tp3347
asS'largest'
p3348
(lp3349
(I4
I1
I2
tp3350
asS'versions'
p3351
(lp3352
(I1
I2
I0
tp3353
asS'wish'
p3354
(lp3355
(I1
I1
I0
tp3356
asS'cells'
p3357
(lp3358
(I2
I3
I0
tp3359
asS'attached'
p3360
(lp3361
(I1
I1
I1
tp3362
asS'gottfried'
p3363
(lp3364
(I2
I1
I0
tp3365
asS'devices'
p3366
(lp3367
(I1
I2
I0
tp3368
asS'considered'
p3369
(lp3370
(I3
I3
I1
tp3371
asS'books'
p3372
(lp3373
(I2
I1
I0
tp3374
asS'main'
p3375
(lp3376
(I4
I1
I2
tp3377
asS'fertilize'
p3378
(lp3379
(I4
I1
I1
tp3380
asS'distribution'
p3381
(lp3382
(I1
I1
I0
tp3383
asS'similar'
p3384
(lp3385
(I2
I1
I2
tp3386
a(I4
I1
I2
tp3387
asS'called'
p3388
(lp3389
(I1
I1
I1
tp3390
a(I3
I1
I1
tp3391
asS'nature'
p3392
(lp3393
(I2
I1
I0
tp3394
asS'detailed'
p3395
(lp3396
(I1
I1
I0
tp3397
asS'model'
p3398
(lp3399
(I0
I1
I0
tp3400
a(I2
I1
I0
tp3401
asS'supreme'
p3402
(lp3403
(I4
I1
I0
tp3404
asS'informatik'
p3405
(lp3406
(I3
I1
I0
tp3407
asS'indian-born'
p3408
(lp3409
(I4
I1
I2
tp3410
asS'computing'
p3411
(lp3412
(I0
I3
I0
tp3413
a(I3
I2
I0
tp3414
a(I3
I2
I1
tp3415
asS'defined'
p3416
(lp3417
(I3
I1
I0
tp3418
asS'certain'
p3419
(lp3420
(I3
I1
I0
tp3421
asS'handset'
p3422
(lp3423
(I1
I1
I0
tp3424
asS'year'
p3425
(lp3426
(I3
I1
I0
tp3427
asS'malthus'
p3428
(lp3429
(I2
I1
I0
tp3430
asS'evidence'
p3431
(lp3432
(I2
I1
I0
tp3433
asS'modify'
p3434
(lp3435
(I4
I1
I1
tp3436
asS'engineering'
p3437
(lp3438
(I3
I6
I0
tp3439
a(I4
I1
I0
tp3440
a(I4
I4
I0
tp3441
asS'expertise'
p3442
(lp3443
(I2
I1
I0
tp3444
asS'aristotle'
p3445
(lp3446
(I2
I2
I0
tp3447
asS'biotechnological'
p3448
(lp3449
(I4
I2
I2
tp3450
asS'domestication'
p3451
(lp3452
(I4
I1
I0
tp3453
asS'russel'
p3454
(lp3455
(I2
I1
I0
tp3456
asS'computational'
p3457
(lp3458
(I3
I1
I2
tp3459
asS'physical'
p3460
(lp3461
(I2
I1
I2
tp3462
asS'renowned'
p3463
(lp3464
(I3
I1
I1
tp3465
asS'%'
(lp3466
(I4
I2
I0
tp3467
asS'us'
p3468
(lp3469
(I4
I3
I0
tp3470
asS'biochemistry'
p3471
(lp3472
(I4
I1
I0
tp3473
asS'trials'
p3474
(lp3475
(I0
I1
I0
tp3476
asS'generally'
p3477
(lp3478
(I0
I1
I3
tp3479
a(I3
I1
I3
tp3480
a(I4
I1
I3
tp3481
asS'field'
p3482
(lp3483
(I3
I2
I0
tp3484
a(I4
I3
I0
tp3485
asS'other'
p3486
(lp3487
(I2
I3
I2
tp3488
a(I3
I3
I2
tp3489
a(I4
I1
I0
tp3490
a(I4
I6
I2
tp3491
asS'electrical'
p3492
(lp3493
(I0
I1
I2
tp3494
asS'genome'
p3495
(lp3496
(I2
I2
I0
tp3497
a(I2
I1
I0
tp3498
asS'digital'
p3499
(lp3500
(I0
I1
I0
tp3501
a(I0
I1
I2
tp3502
asS'department'
p3503
(lp3504
(I3
I1
I0
tp3505
a(I3
I1
I0
tp3506
a(I4
I1
I0
tp3507
asS'mathematics'
p3508
(lp3509
(I3
I4
I0
tp3510
asS'developers'
p3511
(lp3512
(I1
I3
I0
tp3513
asS'edsger'
p3514
(lp3515
(I3
I1
I0
tp3516
asS'hypologist'
p3517
(lp3518
(I3
I1
I0
tp3519
asS'infusoria'
p3520
(lp3521
(I2
I1
I0
tp3522
asS'cell-'
p3523
(lp3524
(I4
I1
I2
tp3525
asS'separate'
p3526
(lp3527
(I3
I1
I2
tp3528
asS'juices'
p3529
(lp3530
(I4
I1
I0
tp3531
asS'enterprise'
p3532
(lp3533
(I4
I1
I0
tp3534
asS'june'
p3535
(lp3536
(I4
I1
I0
tp3537
asS'includes'
p3538
(lp3539
(I1
I1
I1
tp3540
a(I4
I2
I1
tp3541
asS'important'
p3542
(lp3543
(I2
I2
I2
tp3544
asS'suited'
p3545
(lp3546
(I4
I1
I1
tp3547
asS'biotechnology'
p3548
(lp3549
(I4
I4
I0
tp3550
a(I4
I15
I0
tp3551
asS'included'
p3552
(lp3553
(I1
I2
I1
tp3554
a(I2
I1
I1
tp3555
asS'spermatozoa'
p3556
(lp3557
(I2
I1
I0
tp3558
asS'astronomy'
p3559
(lp3560
(I3
I1
I0
tp3561
asS'range'
p3562
(lp3563
(I4
I1
I0
tp3564
asS'structure'
p3565
(lp3566
(I2
I1
I0
tp3567
asS'source'
p3568
(lp3569
(I4
I1
I0
tp3570
asS'independently'
p3571
(lp3572
(I2
I2
I3
tp3573
asS'algorithm'
p3574
(lp3575
(I0
I1
I0
tp3576
asS'organism'
p3577
(lp3578
(I4
I1
I0
tp3579
asS'required'
p3580
(lp3581
(I1
I1
I1
tp3582
a(I4
I1
I1
tp3583
asS'departments'
p3584
(lp3585
(I3
I3
I0
tp3586
asS'spills'
p3587
(lp3588
(I4
I1
I0
tp3589
asS'came'
p3590
(lp3591
(I2
I2
I1
tp3592
asS'time'
p3593
(lp3594
(I0
I1
I0
tp3595
a(I1
I1
I0
tp3596
a(I4
I1
I0
tp3597
asS'offspring'
p3598
(lp3599
(I4
I1
I1
tp3600
asS'serious'
p3601
(lp3602
(I2
I1
I2
tp3603
asS'having'
p3604
(lp3605
(I4
I1
I1
tp3606
asS'intimately'
p3607
(lp3608
(I4
I1
I3
tp3609
as.