(dp1
S''
(lp2
(I0
I10
I0
tp3
a(I1
I2
I0
tp4
a(I2
I14
I0
tp5
a(I2
I1
I1
tp6
a(I3
I14
I0
tp7
a(I4
I5
I0
tp8
a(I4
I1
I1
tp9
asS'limited'
p10
(lp11
(I1
I1
I0
tp12
a(I4
I1
I1
tp13
asS'concept'
p14
(lp15
(I1
I1
I0
tp16
a(I4
I2
I0
tp17
asS'allowed'
p18
(lp19
(I4
I2
I1
tp20
asS'consider'
p21
(lp22
(I0
I1
I0
tp23
asS'chain'
p24
(lp25
(I4
I1
I0
tp26
asS'incorporate'
p27
(lp28
(I3
I1
I1
tp29
asS'strengthened'
p30
(lp31
(I4
I1
I1
tp32
asS'crucial'
p33
(lp34
(I4
I1
I2
tp35
asS'datum'
p36
(lp37
(I0
I2
I0
tp38
a(I1
I3
I0
tp39
asS'month'
p40
(lp41
(I0
I1
I0
tp42
asS'founded'
p43
(lp44
(I0
I1
I1
tp45
asS'entwined'
p46
(lp47
(I4
I1
I1
tp48
asS'code'
p49
(lp50
(I2
I2
I0
tp51
a(I3
I1
I0
tp52
asS'computation'
p53
(lp54
(I0
I2
I0
tp55
a(I1
I2
I0
tp56
asS'go'
p57
(lp58
(I2
I1
I0
tp59
asS'mill'
p60
(lp61
(I1
I1
I0
tp62
asS'genetically'
p63
(lp64
(I4
I2
I3
tp65
asS'reasoning'
p66
(lp67
(I3
I1
I0
tp68
asS'chaim'
p69
(lp70
(I4
I1
I0
tp71
asS'procedure'
p72
(lp73
(I4
I1
I0
tp74
asS'depend'
p75
(lp76
(I0
I1
I1
tp77
asS'producing'
p78
(lp79
(I4
I1
I1
tp80
asS'technique'
p81
(lp82
(I3
I1
I0
tp83
a(I4
I1
I0
tp84
asS'father'
p85
(lp86
(I1
I1
I0
tp87
asS'including'
p88
(lp89
(I4
I1
I1
tp90
asS'environment'
p91
(lp92
(I2
I1
I0
tp93
a(I4
I1
I0
tp94
asS'finally'
p95
(lp96
(I3
I1
I0
tp97
asS'program'
p98
(lp99
(I1
I1
I0
tp100
a(I4
I1
I0
tp101
asS'promoting'
p102
(lp103
(I3
I1
I1
tp104
asS'civilization'
p105
(lp106
(I3
I1
I0
tp107
asS'include'
p108
(lp109
(I2
I1
I0
tp110
a(I2
I1
I1
tp111
asS'sent'
p112
(lp113
(I2
I1
I1
tp114
asS'case'
p115
(lp116
(I2
I1
I0
tp117
a(I4
I1
I0
tp118
asS'updated'
p119
(lp120
(I2
I1
I1
tp121
a(I2
I1
I2
tp122
asS'geology'
p123
(lp124
(I3
I1
I0
tp125
asS'desirable'
p126
(lp127
(I4
I1
I2
tp128
asS'continues'
p129
(lp130
(I0
I1
I1
tp131
asS'suggesting'
p132
(lp133
(I3
I1
I1
tp134
asS'bioproduct'
p135
(lp136
(I4
I1
I0
tp137
asS'bacterial'
p138
(lp139
(I4
I1
I2
tp140
asS'vastly'
p141
(lp142
(I3
I1
I3
tp143
asS'difference'
p144
(lp145
(I0
I1
I0
tp146
asS'treating'
p147
(lp148
(I4
I1
I0
tp149
asS'scholar'
p150
(lp151
(I3
I3
I0
tp152
asS'computic'
p153
(lp154
(I0
I1
I0
tp155
asS'leeuwenhoek'
p156
(lp157
(I3
I1
I0
tp158
asS'altering'
p159
(lp160
(I4
I1
I1
tp161
asS'supports'
p162
(lp163
(I2
I1
I1
tp164
asS'developing'
p165
(lp166
(I4
I1
I1
tp167
asS'accidentally'
p168
(lp169
(I2
I1
I3
tp170
asS'large'
p171
(lp172
(I4
I1
I2
tp173
asS'team'
p174
(lp175
(I2
I1
I0
tp176
asS'biological'
p177
(lp178
(I3
I3
I2
tp179
a(I4
I1
I0
tp180
a(I4
I5
I2
tp181
asS'conceptualize'
p182
(lp183
(I1
I1
I1
tp184
asS'20th'
p185
(lp186
(I1
I2
I2
tp187
asS'\x80'
(lp188
(I0
I1
I0
tp189
a(I3
I2
I0
tp190
a(I4
I1
I0
tp191
asS'smaller'
p192
(lp193
(I2
I1
I2
tp194
asS'antibiotic'
p195
(lp196
(I4
I1
I0
tp197
a(I4
I1
I2
tp198
asS'be'
p199
(lp200
(I0
I1
I1
tp201
a(I1
I1
I1
tp202
a(I2
I1
I1
tp203
a(I3
I1
I1
tp204
a(I4
I3
I1
tp205
asS'natur'
p206
(lp207
(I3
I1
I0
tp208
asS'direct'
p209
(lp210
(I1
I1
I2
tp211
asS'crop'
p212
(lp213
(I4
I5
I0
tp214
asS'installing'
p215
(lp216
(I2
I1
I1
tp217
asS'invention'
p218
(lp219
(I1
I1
I0
tp220
asS'design'
p221
(lp222
(I0
I2
I0
tp223
a(I1
I2
I0
tp224
a(I2
I1
I0
tp225
asS'enhancement'
p226
(lp227
(I2
I1
I0
tp228
asS'by-product'
p229
(lp230
(I4
I1
I0
tp231
asS'oder'
p232
(lp233
(I3
I1
I0
tp234
asS'download'
p235
(lp236
(I2
I1
I0
tp237
asS'further'
p238
(lp239
(I0
I1
I3
tp240
a(I3
I1
I2
tp241
asS'copenhagen'
p242
(lp243
(I0
I1
I0
tp244
asS'acid'
p245
(lp246
(I4
I1
I0
tp247
asS'bacteria'
p248
(lp249
(I3
I1
I1
tp250
asS'even'
p251
(lp252
(I3
I2
I3
tp253
a(I4
I1
I3
tp254
asS'microbiological'
p255
(lp256
(I4
I1
I2
tp257
asS'material'
p258
(lp259
(I4
I1
I0
tp260
asS'developed'
p261
(lp262
(I4
I3
I1
tp263
asS'appear'
p264
(lp265
(I1
I1
I1
tp266
asS'organisms'
p267
(lp268
(I4
I1
I1
tp269
asS'revolves'
p270
(lp271
(I0
I1
I1
tp272
asS'microbiology'
p273
(lp274
(I4
I2
I0
tp275
asS'malleable'
p276
(lp277
(I3
I1
I2
tp278
asS'lactic'
p279
(lp280
(I4
I1
I0
tp281
asS'cell'
p282
(lp283
(I3
I6
I0
tp284
a(I4
I2
I0
tp285
asS'19th'
p286
(lp287
(I1
I1
I2
tp288
a(I3
I1
I2
tp289
asS'version'
p290
(lp291
(I1
I1
I0
tp292
a(I2
I4
I0
tp293
asS'del'
p294
(lp295
(I0
I1
I0
tp296
asS'officially'
p297
(lp298
(I2
I1
I3
tp299
asS'journal'
p300
(lp301
(I0
I1
I0
tp302
asS'body'
p303
(lp304
(I3
I2
I0
tp305
asS'impact'
p306
(lp307
(I3
I1
I0
tp308
asS'dissection'
p309
(lp310
(I3
I1
I0
tp311
asS'led'
p312
(lp313
(I2
I1
I1
tp314
a(I3
I2
I1
tp315
a(I4
I2
I1
tp316
asS'never'
p317
(lp318
(I1
I1
I3
tp319
asS'commercial'
p320
(lp321
(I0
I1
I2
tp322
a(I4
I1
I2
tp323
asS'french'
p324
(lp325
(I0
I1
I2
tp326
asS'understanding'
p327
(lp328
(I4
I1
I0
tp329
asS'met'
p330
(lp331
(I1
I1
I1
tp332
a(I4
I1
I1
tp333
asS'fleming'
p334
(lp335
(I4
I1
I0
tp336
asS'selective'
p337
(lp338
(I4
I2
I2
tp339
asS'china'
p340
(lp341
(I3
I1
I0
tp342
asS'twentieth'
p343
(lp344
(I4
I1
I0
tp345
asS'ethanol'
p346
(lp347
(I4
I2
I0
tp348
asS'bioengineering'
p349
(lp350
(I4
I1
I1
tp351
asS'apache'
p352
(lp353
(I2
I1
I0
tp354
asS'florey'
p355
(lp356
(I4
I1
I0
tp357
asS'november'
p358
(lp359
(I2
I1
I0
tp360
asS'invented'
p361
(lp362
(I1
I2
I1
tp363
asS'physiology'
p364
(lp365
(I3
I1
I0
tp366
asS'change'
p367
(lp368
(I2
I1
I0
tp369
asS'convert'
p370
(lp371
(I4
I2
I1
tp372
asS'antony'
p373
(lp374
(I3
I1
I0
tp375
asS'algebra'
p376
(lp377
(I0
I1
I0
tp378
a(I1
I1
I0
tp379
asS'lyell'
p380
(lp381
(I3
I1
I0
tp382
asS'technical'
p383
(lp384
(I4
I1
I2
tp385
asS'study'
p386
(lp387
(I0
I3
I0
tp388
a(I3
I5
I0
tp389
asS'studied'
p390
(lp391
(I3
I3
I1
tp392
asS'turologist'
p393
(lp394
(I0
I1
I0
tp395
asS'through'
p396
(lp397
(I4
I1
I0
tp398
asS'round'
p399
(lp400
(I2
I1
I0
tp401
asS'prior'
p402
(lp403
(I1
I1
I0
tp404
asS'amount'
p405
(lp406
(I0
I1
I0
tp407
asS'indian-born'
p408
(lp409
(I4
I1
I2
tp410
asS'computer-related'
p411
(lp412
(I0
I1
I2
tp413
asS'farming'
p414
(lp415
(I4
I1
I0
tp416
asS'published'
p417
(lp418
(I3
I1
I0
tp419
a(I3
I1
I1
tp420
asS'usually'
p421
(lp422
(I0
I1
I3
tp423
asS'ancient'
p424
(lp425
(I3
I1
I0
tp426
a(I3
I1
I1
tp427
a(I3
I1
I2
tp428
a(I4
I1
I0
tp429
asS'gene'
p430
(lp431
(I3
I1
I0
tp432
asS'settled'
p433
(lp434
(I1
I1
I1
tp435
asS'der'
p436
(lp437
(I3
I1
I0
tp438
asS'involves'
p439
(lp440
(I4
I1
I1
tp441
asS'bioprocess'
p442
(lp443
(I4
I1
I0
tp444
asS'followed'
p445
(lp446
(I0
I1
I1
tp447
asS'debugger'
p448
(lp449
(I2
I1
I0
tp450
asS'classification'
p451
(lp452
(I3
I1
I0
tp453
asS'elaborated'
p454
(lp455
(I3
I1
I1
tp456
asS'egypt'
p457
(lp458
(I3
I1
I0
tp459
a(I4
I1
I0
tp460
asS'requiring'
p461
(lp462
(I4
I1
I1
tp463
asS'prefer'
p464
(lp465
(I0
I1
I1
tp466
asS'private'
p467
(lp468
(I2
I2
I2
tp469
asS'modifying'
p470
(lp471
(I4
I1
I0
tp472
asS'apk'
p473
(lp474
(I2
I1
I0
tp475
a(I2
I1
I2
tp476
asS'boolean'
p477
(lp478
(I1
I1
I0
tp479
asS'names'
p480
(lp481
(I0
I1
I1
tp482
asS'soybean'
p483
(lp484
(I4
I1
I0
tp485
asS'ailing'
p486
(lp487
(I4
I1
I1
tp488
asS'sugar'
p489
(lp490
(I4
I1
I0
tp491
asS'unit'
p492
(lp493
(I1
I1
I0
tp494
a(I3
I1
I0
tp495
asS'use'
p496
(lp497
(I0
I1
I1
tp498
a(I1
I1
I0
tp499
a(I2
I2
I1
tp500
a(I3
I1
I0
tp501
a(I4
I6
I0
tp502
a(I4
I2
I1
tp503
asS'earliest'
p504
(lp505
(I4
I1
I2
tp506
asS'from'
p507
(lp508
(I3
I1
I0
tp509
asS'working'
p510
(lp511
(I1
I1
I1
tp512
a(I2
I1
I1
tp513
a(I3
I1
I1
tp514
a(I4
I1
I1
tp515
asS'prove'
p516
(lp517
(I1
I1
I1
tp518
asS'remains'
p519
(lp520
(I1
I1
I1
tp521
asS'revelation'
p522
(lp523
(I2
I1
I0
tp524
asS'contains'
p525
(lp526
(I2
I1
I1
tp527
asS'readable'
p528
(lp529
(I1
I2
I2
tp530
asS'enzyme'
p531
(lp532
(I4
I1
I0
tp533
asS'next'
p534
(lp535
(I0
I1
I2
tp536
asS'process'
p537
(lp538
(I4
I2
I0
tp539
asS'sample'
p540
(lp541
(I2
I1
I0
tp542
asS'cultivation'
p543
(lp544
(I4
I2
I0
tp545
asS'call'
p546
(lp547
(I4
I1
I1
tp548
asS'opposed'
p549
(lp550
(I3
I2
I1
tp551
asS'preview'
p552
(lp553
(I2
I1
I0
tp554
asS'type'
p555
(lp556
(I0
I1
I0
tp557
asS'more'
p558
(lp559
(I0
I2
I3
tp560
a(I3
I2
I3
tp561
a(I4
I1
I2
tp562
asS'beer'
p563
(lp564
(I4
I2
I0
tp565
asS'diamond'
p566
(lp567
(I4
I1
I0
tp568
asS'definition'
p569
(lp570
(I3
I1
I0
tp571
a(I4
I1
I0
tp572
asS'successful'
p573
(lp574
(I1
I1
I2
tp575
a(I3
I1
I2
tp576
asS'division'
p577
(lp578
(I3
I1
I0
tp579
asS'company'
p580
(lp581
(I1
I1
I0
tp582
asS'infection'
p583
(lp584
(I4
I1
I0
tp585
asS'industrial'
p586
(lp587
(I4
I1
I2
tp588
asS'thermionic'
p589
(lp590
(I1
I1
I2
tp591
asS'known'
p592
(lp593
(I3
I1
I1
tp594
asS'effort'
p595
(lp596
(I0
I1
I0
tp597
a(I3
I2
I0
tp598
asS'dex'
p599
(lp600
(I2
I1
I0
tp601
asS'states'
p602
(lp603
(I1
I1
I1
tp604
asS'keeping'
p605
(lp606
(I2
I1
I1
tp607
asS'word'
p608
(lp609
(I3
I1
I0
tp610
asS'ibm'
p611
(lp612
(I1
I1
I0
tp613
asS'announcing'
p614
(lp615
(I2
I1
I0
tp616
asS'science'
p617
(lp618
(I0
I16
I0
tp619
a(I1
I1
I0
tp620
a(I1
I1
I0
tp621
a(I3
I2
I0
tp622
a(I4
I5
I0
tp623
asS'challenge'
p624
(lp625
(I2
I3
I0
tp626
asS'work'
p627
(lp628
(I0
I1
I0
tp629
a(I3
I5
I0
tp630
a(I4
I2
I0
tp631
asS'eclipse'
p632
(lp633
(I2
I1
I0
tp634
asS'focu'
p635
(lp636
(I0
I2
I0
tp637
a(I3
I2
I0
tp638
asS'capable'
p639
(lp640
(I4
I1
I2
tp641
asS'tissue'
p642
(lp643
(I4
I1
I0
tp644
asS'crossed'
p645
(lp646
(I0
I1
I1
tp647
asS'era'
p648
(lp649
(I3
I1
I0
tp650
asS'henry'
p651
(lp652
(I1
I1
I0
tp653
asS'growing'
p654
(lp655
(I4
I1
I1
tp656
asS'making'
p657
(lp658
(I0
I1
I1
tp659
asS'mesopotamia'
p660
(lp661
(I3
I1
I0
tp662
a(I4
I1
I0
tp663
asS'root'
p664
(lp665
(I2
I1
I0
tp666
asS'example'
p667
(lp668
(I0
I1
I0
tp669
a(I4
I1
I0
tp670
asS'history'
p671
(lp672
(I3
I1
I0
tp673
a(I3
I3
I0
tp674
a(I4
I1
I0
tp675
asS'control'
p676
(lp677
(I1
I1
I0
tp678
a(I2
I1
I0
tp679
a(I4
I1
I0
tp680
asS'meant'
p681
(lp682
(I1
I1
I1
tp683
asS'figure'
p684
(lp685
(I3
I1
I0
tp686
asS'stated'
p687
(lp688
(I0
I1
I1
tp689
asS'calculation'
p690
(lp691
(I1
I1
I0
tp692
asS'mold'
p693
(lp694
(I4
I1
I0
tp695
asS'khorana'
p696
(lp697
(I3
I1
I0
tp698
asS'india'
p699
(lp700
(I4
I1
I0
tp701
asS'involve'
p702
(lp703
(I0
I1
I1
tp704
asS'sphere'
p705
(lp706
(I4
I1
I0
tp707
asS'application'
p708
(lp709
(I2
I3
I0
tp710
a(I4
I1
I0
tp711
a(I4
I2
I0
tp712
asS'performed'
p713
(lp714
(I1
I1
I1
tp715
asS'sense'
p716
(lp717
(I3
I1
I0
tp718
asS'conversely'
p719
(lp720
(I4
I1
I3
tp721
asS'species'
p722
(lp723
(I3
I2
I0
tp724
asS'influenced'
p725
(lp726
(I0
I1
I1
tp727
a(I3
I1
I1
tp728
asS'needs'
p729
(lp730
(I1
I1
I1
tp731
asS'united'
p732
(lp733
(I1
I1
I0
tp734
a(I4
I3
I0
tp735
asS'end'
p736
(lp737
(I1
I1
I0
tp738
asS'goal'
p739
(lp740
(I0
I1
I0
tp741
a(I3
I1
I0
tp742
asS'pure'
p743
(lp744
(I4
I2
I0
tp745
asS'purpose'
p746
(lp747
(I4
I1
I0
tp748
asS'starch'
p749
(lp750
(I4
I2
I0
tp751
asS'spreadsheet'
p752
(lp753
(I1
I1
I0
tp754
asS'arrangement'
p755
(lp756
(I2
I1
I0
tp757
asS'machine'
p758
(lp759
(I1
I6
I0
tp760
asS'animal'
p761
(lp762
(I3
I1
I0
tp763
a(I4
I1
I0
tp764
a(I4
I1
I2
tp765
asS'\xb6'
(lp766
(I0
I1
I0
tp767
asS'uniformitarian'
p768
(lp769
(I3
I1
I2
tp770
asS'"'
(lp771
(I0
I2
I0
tp772
a(I2
I2
I0
tp773
a(I3
I2
I0
tp774
a(I4
I2
I0
tp775
a(I4
I1
I1
tp776
asS'plant'
p777
(lp778
(I3
I1
I0
tp779
a(I4
I4
I0
tp780
asS'intended'
p781
(lp782
(I2
I1
I1
tp783
asS'information'
p784
(lp785
(I0
I3
I0
tp786
a(I1
I1
I0
tp787
a(I4
I1
I0
tp788
asS'farm'
p789
(lp790
(I4
I1
I0
tp791
asS'turing'
p792
(lp793
(I0
I1
I0
tp794
a(I1
I5
I0
tp795
asS'clostridium'
p796
(lp797
(I4
I1
I0
tp798
asS'philosophy'
p799
(lp800
(I0
I1
I0
tp801
a(I3
I1
I0
tp802
asS'derived'
p803
(lp804
(I0
I2
I1
tp805
a(I4
I1
I1
tp806
asS'mapping'
p807
(lp808
(I3
I1
I1
tp809
asS'linnaeu'
p810
(lp811
(I3
I1
I0
tp812
asS'reflect'
p813
(lp814
(I0
I1
I1
tp815
asS'islamic'
p816
(lp817
(I3
I1
I0
tp818
asS'mac'
p819
(lp820
(I2
I1
I0
tp821
asS'explored'
p822
(lp823
(I4
I1
I1
tp824
asS'burdach'
p825
(lp826
(I3
I1
I0
tp827
asS'date'
p828
(lp829
(I3
I1
I0
tp830
asS'such'
p831
(lp832
(I0
I4
I2
tp833
a(I3
I2
I2
tp834
a(I4
I4
I2
tp835
asS'compatibility'
p836
(lp837
(I2
I1
I0
tp838
asS'physic'
p839
(lp840
(I0
I1
I0
tp841
asS'descent'
p842
(lp843
(I3
I1
I0
tp844
asS'a'
(lp845
(I3
I1
I0
tp846
asS'introduced'
p847
(lp848
(I3
I2
I1
tp849
asS'natural'
p850
(lp851
(I3
I1
I0
tp852
a(I3
I4
I2
tp853
asS'documentation'
p854
(lp855
(I2
I1
I0
tp856
asS'introducing'
p857
(lp858
(I4
I1
I1
tp859
asS'purification'
p860
(lp861
(I4
I1
I0
tp862
asS'greek'
p863
(lp864
(I3
I3
I0
tp865
asS'maintain'
p866
(lp867
(I4
I1
I0
tp868
asS'so'
p869
(lp870
(I2
I1
I3
tp871
asS'theorized'
p872
(lp873
(I4
I1
I1
tp874
asS'representation'
p875
(lp876
(I3
I1
I0
tp877
asS'kurt'
p878
(lp879
(I0
I1
I0
tp880
asS'began'
p881
(lp882
(I3
I2
I1
tp883
asS'cross-fertilization'
p884
(lp885
(I0
I1
I0
tp886
asS'evolutionary'
p887
(lp888
(I3
I1
I0
tp889
a(I3
I4
I2
tp890
asS'september'
p891
(lp892
(I2
I1
I0
tp893
asS'taxonomy'
p894
(lp895
(I3
I2
I0
tp896
asS'pointed'
p897
(lp898
(I3
I2
I1
tp899
asS'ananda'
p900
(lp901
(I4
I1
I0
tp902
asS'mainly'
p903
(lp904
(I0
I1
I3
tp905
a(I2
I1
I3
tp906
asS'feature'
p907
(lp908
(I2
I1
I0
tp909
asS'produced'
p910
(lp911
(I1
I1
I1
tp912
a(I4
I1
I1
tp913
asS'held'
p914
(lp915
(I3
I1
I1
tp916
asS'dijkstra'
p917
(lp918
(I0
I1
I0
tp919
asS'scientist'
p920
(lp921
(I0
I2
I0
tp922
a(I4
I1
I0
tp923
asS'google'
p924
(lp925
(I2
I1
I0
tp926
asS'flow-charts-man'
p927
(lp928
(I0
I1
I2
tp929
asS'keyboard'
p930
(lp931
(I1
I1
I0
tp932
asS'staining'
p933
(lp934
(I3
I1
I0
tp935
asS'still'
p936
(lp937
(I3
I1
I3
tp938
a(I4
I2
I3
tp939
asS'developer'
p940
(lp941
(I2
I4
I0
tp942
a(I2
I3
I0
tp943
asS'chemical'
p944
(lp945
(I4
I1
I2
tp946
asS'ephedra'
p947
(lp948
(I4
I1
I0
tp949
asS'rapidly'
p950
(lp951
(I4
I1
I3
tp952
asS'thank'
p953
(lp954
(I3
I1
I0
tp955
asS'wallace'
p956
(lp957
(I3
I1
I0
tp958
asS'fix'
p959
(lp960
(I2
I1
I0
tp961
asS'encompasses'
p962
(lp963
(I4
I1
I1
tp964
asS'carolu'
p965
(lp966
(I3
I1
I0
tp967
asS'writing'
p968
(lp969
(I3
I1
I0
tp970
asS'late'
p971
(lp972
(I1
I1
I2
tp973
asS'platform'
p974
(lp975
(I2
I5
I0
tp976
asS'window'
p977
(lp978
(I2
I1
I0
tp979
asS'production'
p980
(lp981
(I4
I2
I0
tp982
asS'humboldt'
p983
(lp984
(I3
I1
I0
tp985
asS'biomedical'
p986
(lp987
(I4
I1
I0
tp988
asS'farmer'
p989
(lp990
(I4
I2
I0
tp991
asS'selection'
p992
(lp993
(I3
I1
I0
tp994
a(I4
I1
I0
tp995
asS'derivative'
p996
(lp997
(I4
I1
I0
tp998
asS'main'
p999
(lp1000
(I4
I1
I2
tp1001
asS'causation'
p1002
(lp1003
(I3
I1
I0
tp1004
asS'then'
p1005
(lp1006
(I2
I1
I3
tp1007
a(I3
I1
I3
tp1008
a(I4
I1
I3
tp1009
asS'ologie'
p1010
(lp1011
(I3
I1
I0
tp1012
asS'finance'
p1013
(lp1014
(I1
I1
I0
tp1015
asS'food'
p1016
(lp1017
(I4
I5
I0
tp1018
asS'entomology'
p1019
(lp1020
(I3
I1
I0
tp1021
asS'ruled'
p1022
(lp1023
(I4
I1
I1
tp1024
asS'nation'
p1025
(lp1026
(I4
I1
I0
tp1027
asS'norman'
p1028
(lp1029
(I4
I1
I0
tp1030
asS'compound'
p1031
(lp1032
(I3
I1
I0
tp1033
asS'not'
p1034
(lp1035
(I0
I3
I3
tp1036
a(I1
I2
I3
tp1037
a(I2
I1
I3
tp1038
a(I4
I4
I3
tp1039
asS'day'
p1040
(lp1041
(I0
I1
I0
tp1042
asS'acetone'
p1043
(lp1044
(I4
I1
I0
tp1045
asS'successor'
p1046
(lp1047
(I3
I1
I0
tp1048
asS'contributed'
p1049
(lp1050
(I3
I1
I1
tp1051
asS'going'
p1052
(lp1053
(I4
I1
I1
tp1054
asS'term'
p1055
(lp1056
(I0
I7
I0
tp1057
a(I3
I1
I0
tp1058
a(I4
I2
I0
tp1059
asS'name'
p1060
(lp1061
(I0
I3
I0
tp1062
a(I3
I1
I0
tp1063
asS'profound'
p1064
(lp1065
(I3
I1
I0
tp1066
asS'mathematician'
p1067
(lp1068
(I0
I1
I0
tp1069
asS'fully'
p1070
(lp1071
(I1
I1
I3
tp1072
a(I4
I1
I3
tp1073
asS'university'
p1074
(lp1075
(I0
I1
I0
tp1076
a(I0
I1
I0
tp1077
asS'naturalist'
p1078
(lp1079
(I3
I1
I0
tp1080
a(I3
I1
I2
tp1081
asS'normally'
p1082
(lp1083
(I4
I1
I3
tp1084
asS'subcontinent'
p1085
(lp1086
(I3
I1
I0
tp1087
asS'productivity'
p1088
(lp1089
(I4
I1
I0
tp1090
asS'formalisation'
p1091
(lp1092
(I1
I1
I0
tp1093
asS'good'
p1094
(lp1095
(I4
I1
I2
tp1096
asS'ageing'
p1097
(lp1098
(I4
I1
I1
tp1099
asS'debug'
p1100
(lp1101
(I2
I1
I0
tp1102
asS'done'
p1103
(lp1104
(I4
I1
I1
tp1105
asS'higher'
p1106
(lp1107
(I4
I1
I2
tp1108
asS'mean'
p1109
(lp1110
(I0
I1
I0
tp1111
asS'domain'
p1112
(lp1113
(I0
I1
I0
tp1114
a(I3
I1
I0
tp1115
asS'everyone'
p1116
(lp1117
(I1
I1
I0
tp1118
asS'telescope'
p1119
(lp1120
(I0
I1
I0
tp1121
asS'series'
p1122
(lp1123
(I3
I1
I0
tp1124
asS'eg'
p1125
(lp1126
(I2
I1
I0
tp1127
asS'afro-arab'
p1128
(lp1129
(I3
I1
I0
tp1130
asS'reduce'
p1131
(lp1132
(I4
I1
I1
tp1133
asS'idea'
p1134
(lp1135
(I0
I2
I0
tp1136
a(I3
I2
I0
tp1137
asS'related'
p1138
(lp1139
(I3
I1
I1
tp1140
a(I4
I1
I2
tp1141
asS'extended'
p1142
(lp1143
(I2
I1
I1
tp1144
a(I3
I1
I1
tp1145
asS'yield'
p1146
(lp1147
(I4
I1
I0
tp1148
asS'begun'
p1149
(lp1150
(I1
I1
I1
tp1151
a(I4
I1
I1
tp1152
asS'year'
p1153
(lp1154
(I0
I1
I0
tp1155
a(I4
I1
I0
tp1156
asS'naming'
p1157
(lp1158
(I1
I1
I0
tp1159
asS'recognizable'
p1160
(lp1161
(I1
I1
I2
tp1162
asS'agriculture'
p1163
(lp1164
(I4
I1
I0
tp1165
a(I4
I3
I0
tp1166
asS'penicillin'
p1167
(lp1168
(I4
I2
I0
tp1169
asS'category'
p1170
(lp1171
(I0
I1
I0
tp1172
a(I3
I1
I0
tp1173
asS'living'
p1174
(lp1175
(I3
I1
I1
tp1176
a(I4
I2
I0
tp1177
a(I4
I2
I1
tp1178
asS'funding'
p1179
(lp1180
(I0
I1
I0
tp1181
asS'alcohol'
p1182
(lp1183
(I4
I1
I0
tp1184
asS'robert'
p1185
(lp1186
(I3
I2
I0
tp1187
asS'valve'
p1188
(lp1189
(I1
I1
I0
tp1190
asS'kensington'
p1191
(lp1192
(I1
I1
I0
tp1193
asS'reboot'
p1194
(lp1195
(I2
I1
I0
tp1196
asS'research'
p1197
(lp1198
(I0
I2
I0
tp1199
asS'increase'
p1200
(lp1201
(I4
I1
I1
tp1202
asS'investigation'
p1203
(lp1204
(I3
I1
I0
tp1205
asS'dutch'
p1206
(lp1207
(I0
I1
I2
tp1208
asS'medicine'
p1209
(lp1210
(I3
I1
I0
tp1211
a(I3
I1
I0
tp1212
a(I4
I1
I0
tp1213
asS'lebenden'
p1214
(lp1215
(I3
I1
I0
tp1216
asS'issue'
p1217
(lp1218
(I0
I1
I0
tp1219
asS'integrated'
p1220
(lp1221
(I2
I1
I1
tp1222
asS'foundation'
p1223
(lp1224
(I1
I1
I0
tp1225
asS'penicillium'
p1226
(lp1227
(I4
I1
I0
tp1228
asS'after'
p1229
(lp1230
(I1
I1
I0
tp1231
asS'theory'
p1232
(lp1233
(I0
I2
I0
tp1234
a(I3
I4
I0
tp1235
asS'largely'
p1236
(lp1237
(I4
I1
I3
tp1238
asS'contain'
p1239
(lp1240
(I3
I1
I1
tp1241
asS'sheer'
p1242
(lp1243
(I3
I1
I0
tp1244
asS'possibility'
p1245
(lp1246
(I3
I1
I0
tp1247
asS'release'
p1248
(lp1249
(I2
I1
I0
tp1250
a(I2
I6
I0
tp1251
asS'reason'
p1252
(lp1253
(I2
I1
I0
tp1254
asS'keypunch'
p1255
(lp1256
(I1
I1
I0
tp1257
asS'boosting'
p1258
(lp1259
(I4
I1
I0
tp1260
asS'acetobutylicum'
p1261
(lp1262
(I4
I1
I0
tp1263
asS'byte'
p1264
(lp1265
(I2
I1
I0
tp1266
asS'kit'
p1267
(lp1268
(I2
I1
I0
tp1269
a(I2
I1
I0
tp1270
asS'card'
p1271
(lp1272
(I1
I4
I0
tp1273
asS'basi'
p1274
(lp1275
(I1
I1
I0
tp1276
asS'advance'
p1277
(lp1278
(I3
I1
I0
tp1279
a(I3
I1
I0
tp1280
a(I4
I1
I0
tp1281
asS'g'
(lp1282
(I0
I1
I0
tp1283
asS'created'
p1284
(lp1285
(I3
I1
I1
tp1286
asS'corn'
p1287
(lp1288
(I4
I3
I0
tp1289
asS'transition'
p1290
(lp1291
(I3
I1
I0
tp1292
asS'british'
p1293
(lp1294
(I3
I1
I2
tp1295
asS'david'
p1296
(lp1297
(I0
I1
I0
tp1298
asS'thing'
p1299
(lp1300
(I4
I1
I0
tp1301
asS'produce'
p1302
(lp1303
(I4
I6
I1
tp1304
asS'epistemologist'
p1305
(lp1306
(I0
I1
I0
tp1307
asS'broken'
p1308
(lp1309
(I4
I1
I1
tp1310
asS'comte'
p1311
(lp1312
(I3
I1
I0
tp1313
asS'rudolf'
p1314
(lp1315
(I3
I1
I0
tp1316
asS'support'
p1317
(lp1318
(I4
I1
I1
tp1319
asS'south'
p1320
(lp1321
(I1
I1
I0
tp1322
asS'first'
p1323
(lp1324
(I0
I2
I2
tp1325
a(I1
I3
I2
tp1326
a(I2
I1
I2
tp1327
a(I3
I1
I2
tp1328
a(I4
I2
I2
tp1329
a(I4
I1
I3
tp1330
asS'origin'
p1331
(lp1332
(I3
I1
I0
tp1333
asS'botany'
p1334
(lp1335
(I3
I2
I0
tp1336
asS'major'
p1337
(lp1338
(I0
I1
I2
tp1339
asS'already'
p1340
(lp1341
(I2
I1
I3
tp1342
asS'suffix'
p1343
(lp1344
(I3
I1
I0
tp1345
asS'revenue'
p1346
(lp1347
(I4
I1
I0
tp1348
asS'bread'
p1349
(lp1350
(I4
I1
I0
tp1351
asS'number'
p1352
(lp1353
(I0
I1
I0
tp1354
a(I1
I1
I0
tp1355
a(I3
I1
I0
tp1356
asS'preservation'
p1357
(lp1358
(I4
I1
I0
tp1359
asS'antiquity'
p1360
(lp1361
(I3
I1
I0
tp1362
asS'fits'
p1363
(lp1364
(I4
I1
I1
tp1365
asS'revolution'
p1366
(lp1367
(I4
I1
I0
tp1368
asS'simplified'
p1369
(lp1370
(I1
I1
I1
tp1371
asS'pasteur'
p1372
(lp1373
(I4
I1
I0
tp1374
asS'remak'
p1375
(lp1376
(I3
I1
I0
tp1377
asS'xp'
p1378
(lp1379
(I2
I1
I0
tp1380
asS'precisely'
p1381
(lp1382
(I0
I1
I3
tp1383
asS'electronic'
p1384
(lp1385
(I1
I1
I2
tp1386
asS'interchange'
p1387
(lp1388
(I0
I1
I0
tp1389
asS'given'
p1390
(lp1391
(I1
I1
I1
tp1392
asS'necessarily'
p1393
(lp1394
(I0
I1
I3
tp1395
a(I4
I1
I3
tp1396
asS'tinkering'
p1397
(lp1398
(I1
I1
I0
tp1399
asS'system'
p1400
(lp1401
(I0
I3
I0
tp1402
a(I4
I3
I0
tp1403
asS'remotely'
p1404
(lp1405
(I2
I1
I3
tp1406
asS'needed'
p1407
(lp1408
(I4
I2
I1
tp1409
asS'influencing'
p1410
(lp1411
(I4
I1
I1
tp1412
asS'alfred'
p1413
(lp1414
(I3
I1
I0
tp1415
asS'realization'
p1416
(lp1417
(I1
I1
I0
tp1418
asS'programmable'
p1419
(lp1420
(I1
I2
I2
tp1421
asS'molecular'
p1422
(lp1423
(I3
I3
I2
tp1424
a(I4
I2
I2
tp1425
asS'brewing'
p1426
(lp1427
(I4
I1
I1
tp1428
asS'virus'
p1429
(lp1430
(I3
I1
I0
tp1431
asS'danish'
p1432
(lp1433
(I0
I1
I0
tp1434
asS'way'
p1435
(lp1436
(I4
I2
I0
tp1437
asS'relationship'
p1438
(lp1439
(I0
I3
I0
tp1440
asS'kurdish'
p1441
(lp1442
(I3
I1
I0
tp1443
asS'difficult'
p1444
(lp1445
(I4
I1
I2
tp1446
asS'completed'
p1447
(lp1448
(I1
I2
I1
tp1449
a(I3
I1
I1
tp1450
asS'convention'
p1451
(lp1452
(I4
I1
I0
tp1453
asS'alan'
p1454
(lp1455
(I0
I1
I0
tp1456
a(I1
I1
I0
tp1457
asS'released'
p1458
(lp1459
(I2
I2
I0
tp1460
a(I2
I2
I1
tp1461
asS'part'
p1462
(lp1463
(I0
I1
I0
tp1464
asS'court'
p1465
(lp1466
(I4
I1
I0
tp1467
asS'viewed'
p1468
(lp1469
(I4
I1
I1
tp1470
asS'july'
p1471
(lp1472
(I2
I1
I0
tp1473
asS'versatility'
p1474
(lp1475
(I1
I1
I0
tp1476
asS'computer/computation'
p1477
(lp1478
(I0
I1
I0
tp1479
asS'population'
p1480
(lp1481
(I3
I2
I0
tp1482
a(I4
I2
I0
tp1483
asS'wide'
p1484
(lp1485
(I4
I1
I2
tp1486
asS'embryology'
p1487
(lp1488
(I4
I1
I0
tp1489
asS'target'
p1490
(lp1491
(I2
I1
I1
tp1492
a(I4
I1
I0
tp1493
asS'showed'
p1494
(lp1495
(I3
I1
I1
tp1496
asS'double'
p1497
(lp1498
(I3
I1
I2
tp1499
asS'instruction'
p1500
(lp1501
(I2
I1
I0
tp1502
asS'modified'
p1503
(lp1504
(I4
I2
I1
tp1505
asS'scandinavian'
p1506
(lp1507
(I0
I1
I2
tp1508
asS'recording'
p1509
(lp1510
(I1
I1
I0
tp1511
asS'individual'
p1512
(lp1513
(I3
I1
I2
tp1514
asS'were'
p1515
(lp1516
(I0
I1
I1
tp1517
a(I1
I3
I1
tp1518
a(I2
I1
I1
tp1519
a(I3
I1
I1
tp1520
a(I4
I4
I1
tp1521
asS'providing'
p1522
(lp1523
(I1
I1
I1
tp1524
asS'treated'
p1525
(lp1526
(I3
I1
I1
tp1527
asS'medical'
p1528
(lp1529
(I4
I1
I2
tp1530
asS'fermentation'
p1531
(lp1532
(I4
I3
I0
tp1533
a(I4
I1
I0
tp1534
asS'bridge'
p1535
(lp1536
(I0
I1
I1
tp1537
asS'contentious'
p1538
(lp1539
(I0
I1
I2
tp1540
asS'enforcement'
p1541
(lp1542
(I4
I1
I0
tp1543
asS'modern'
p1544
(lp1545
(I1
I4
I2
tp1546
a(I2
I1
I2
tp1547
a(I3
I3
I2
tp1548
a(I4
I1
I0
tp1549
a(I4
I2
I2
tp1550
asS'ant'
p1551
(lp1552
(I2
I1
I0
tp1553
asS'juice'
p1554
(lp1555
(I4
I1
I0
tp1556
asS'parna'
p1557
(lp1558
(I0
I1
I0
tp1559
asS'have'
p1560
(lp1561
(I0
I2
I1
tp1562
a(I2
I1
I1
tp1563
a(I3
I4
I1
tp1564
a(I4
I5
I1
tp1565
asS'principle'
p1566
(lp1567
(I3
I1
I0
tp1568
asS'gobind'
p1569
(lp1570
(I3
I1
I0
tp1571
asS'programmability'
p1572
(lp1573
(I1
I1
I0
tp1574
asS'analysi'
p1575
(lp1576
(I3
I1
I0
tp1577
asS'demonstration'
p1578
(lp1579
(I1
I1
I0
tp1580
asS'any'
p1581
(lp1582
(I4
I1
I0
tp1583
asS'karl'
p1584
(lp1585
(I3
I1
I0
tp1586
asS'relatively'
p1587
(lp1588
(I3
I1
I3
tp1589
asS'ecology'
p1590
(lp1591
(I4
I1
I0
tp1592
asS'built'
p1593
(lp1594
(I3
I1
I1
tp1595
asS'academic'
p1596
(lp1597
(I0
I1
I2
tp1598
asS'studying'
p1599
(lp1600
(I0
I1
I1
tp1601
asS'cope'
p1602
(lp1603
(I4
I1
I1
tp1604
asS'upgrading'
p1605
(lp1606
(I2
I1
I1
tp1607
asS'note'
p1608
(lp1609
(I2
I1
I0
tp1610
asS'also'
p1611
(lp1612
(I0
I1
I0
tp1613
a(I0
I2
I3
tp1614
a(I2
I3
I3
tp1615
a(I3
I1
I3
tp1616
a(I4
I4
I3
tp1617
asS'build'
p1618
(lp1619
(I2
I1
I1
tp1620
asS'thoma'
p1621
(lp1622
(I3
I1
I0
tp1623
asS'tool'
p1624
(lp1625
(I2
I1
I0
tp1626
a(I2
I5
I0
tp1627
asS'accuracy'
p1628
(lp1629
(I1
I1
I0
tp1630
asS'province'
p1631
(lp1632
(I0
I1
I0
tp1633
asS'play'
p1634
(lp1635
(I4
I1
I0
tp1636
asS'added'
p1637
(lp1638
(I2
I1
I1
tp1639
asS'multiple'
p1640
(lp1641
(I2
I1
I0
tp1642
asS'electric'
p1643
(lp1644
(I4
I1
I0
tp1645
asS'though'
p1646
(lp1647
(I3
I1
I0
tp1648
asS'reach'
p1649
(lp1650
(I3
I1
I1
tp1651
asS'me'
p1652
(lp1653
(I4
I3
I0
tp1654
asS'meta-mathematician'
p1655
(lp1656
(I0
I1
I2
tp1657
asS'anatomy'
p1658
(lp1659
(I3
I1
I0
tp1660
asS'most'
p1661
(lp1662
(I1
I1
I2
tp1663
a(I3
I3
I2
tp1664
a(I3
I1
I3
tp1665
asS'beta'
p1666
(lp1667
(I2
I1
I0
tp1668
asS'involving'
p1669
(lp1670
(I0
I1
I1
tp1671
asS'significant'
p1672
(lp1673
(I0
I1
I2
tp1674
a(I3
I1
I0
tp1675
asS'device'
p1676
(lp1677
(I1
I1
I0
tp1678
a(I2
I2
I0
tp1679
asS'medical/health'
p1680
(lp1681
(I4
I1
I2
tp1682
asS'drought'
p1683
(lp1684
(I4
I1
I0
tp1685
asS'comparison'
p1686
(lp1687
(I4
I1
I0
tp1688
asS'herman'
p1689
(lp1690
(I1
I1
I0
tp1691
asS'schwann'
p1692
(lp1693
(I3
I1
I0
tp1694
asS'\xe2'
(lp1695
(I0
I1
I0
tp1696
a(I3
I3
I0
tp1697
a(I4
I1
I0
tp1698
asS'especially'
p1699
(lp1700
(I3
I1
I0
tp1701
a(I3
I2
I3
tp1702
asS'considered'
p1703
(lp1704
(I0
I3
I1
tp1705
asS'professor'
p1706
(lp1707
(I0
I1
I0
tp1708
asS'later'
p1709
(lp1710
(I0
I1
I2
tp1711
a(I1
I1
I1
tp1712
a(I1
I1
I2
tp1713
a(I2
I1
I0
tp1714
a(I2
I1
I2
tp1715
a(I3
I1
I2
tp1716
a(I4
I1
I0
tp1717
asS'spill'
p1718
(lp1719
(I4
I1
I0
tp1720
asS'vulgaris'
p1721
(lp1722
(I4
I1
I1
tp1723
asS'triggering'
p1724
(lp1725
(I2
I1
I1
tp1726
asS'mechanical'
p1727
(lp1728
(I1
I2
I2
tp1729
a(I4
I1
I2
tp1730
asS'organism'
p1731
(lp1732
(I3
I3
I0
tp1733
a(I4
I5
I0
tp1734
asS'fact'
p1735
(lp1736
(I0
I1
I0
tp1737
a(I1
I1
I0
tp1738
asS'sector'
p1739
(lp1740
(I4
I3
I0
tp1741
asS'saying'
p1742
(lp1743
(I0
I1
I1
tp1744
asS'currently'
p1745
(lp1746
(I2
I1
I0
tp1747
a(I2
I1
I3
tp1748
asS'grow'
p1749
(lp1750
(I3
I1
I0
tp1751
a(I4
I1
I1
tp1752
asS'german'
p1753
(lp1754
(I0
I1
I0
tp1755
asS'text'
p1756
(lp1757
(I2
I1
I0
tp1758
asS'supported'
p1759
(lp1760
(I2
I2
I1
tp1761
asS'tenet'
p1762
(lp1763
(I3
I1
I0
tp1764
asS'discovered'
p1765
(lp1766
(I3
I1
I1
tp1767
a(I4
I1
I1
tp1768
asS'\x93'
(lp1769
(I0
I1
I0
tp1770
a(I3
I2
I0
tp1771
asS'nevertheles'
p1772
(lp1773
(I1
I1
I0
tp1774
asS'rhazes'
p1775
(lp1776
(I3
I1
I1
tp1777
asS'malted'
p1778
(lp1779
(I4
I1
I1
tp1780
asS'principal'
p1781
(lp1782
(I0
I2
I2
tp1783
asS'xml'
p1784
(lp1785
(I2
I1
I0
tp1786
asS'o'
(lp1787
(I2
I2
I0
tp1788
asS'taps'
p1789
(lp1790
(I1
I1
I3
tp1791
asS'based'
p1792
(lp1793
(I2
I1
I1
tp1794
a(I3
I1
I1
tp1795
asS'knowledge'
p1796
(lp1797
(I3
I1
I0
tp1798
a(I4
I1
I0
tp1799
asS'winner'
p1800
(lp1801
(I2
I1
I0
tp1802
asS'outside'
p1803
(lp1804
(I4
I1
I2
tp1805
asS'institution'
p1806
(lp1807
(I0
I1
I0
tp1808
asS'jan'
p1809
(lp1810
(I3
I1
I0
tp1811
asS'increasingly'
p1812
(lp1813
(I1
I1
I3
tp1814
a(I4
I1
I3
tp1815
asS'only'
p1816
(lp1817
(I2
I1
I3
tp1818
asS'experiment'
p1819
(lp1820
(I3
I1
I0
tp1821
asS'tape'
p1822
(lp1823
(I1
I1
I0
tp1824
asS'factor'
p1825
(lp1826
(I4
I1
I0
tp1827
asS'fuel'
p1828
(lp1829
(I4
I1
I0
tp1830
asS'folder'
p1831
(lp1832
(I2
I2
I0
tp1833
asS'darwin'
p1834
(lp1835
(I3
I2
I0
tp1836
asS'jean-baptiste'
p1837
(lp1838
(I3
I2
I2
tp1839
asS'achieve'
p1840
(lp1841
(I0
I1
I1
tp1842
asS'dispute'
p1843
(lp1844
(I0
I1
I0
tp1845
asS'informatique'
p1846
(lp1847
(I0
I1
I2
tp1848
asS'hybridization'
p1849
(lp1850
(I4
I1
I0
tp1851
asS'\xc3'
(lp1852
(I0
I1
I0
tp1853
a(I3
I1
I0
tp1854
asS'word-processing'
p1855
(lp1856
(I1
I1
I2
tp1857
asS'dominant'
p1858
(lp1859
(I4
I1
I2
tp1860
asS'meanwhile'
p1861
(lp1862
(I3
I1
I0
tp1863
asS'dependent'
p1864
(lp1865
(I4
I1
I0
tp1866
a(I4
I1
I2
tp1867
asS'compiled'
p1868
(lp1869
(I2
I1
I1
tp1870
asS'morphological'
p1871
(lp1872
(I3
I1
I2
tp1873
asS'overall'
p1874
(lp1875
(I2
I1
I2
tp1876
asS'mated'
p1877
(lp1878
(I4
I1
I1
tp1879
asS'weizmann'
p1880
(lp1881
(I4
I1
I0
tp1882
asS'crude'
p1883
(lp1884
(I4
I1
I2
tp1885
asS'proces'
p1886
(lp1887
(I1
I1
I0
tp1888
a(I4
I5
I0
tp1889
asS'instance'
p1890
(lp1891
(I4
I1
I0
tp1892
asS'new'
p1893
(lp1894
(I2
I2
I2
tp1895
a(I3
I2
I2
tp1896
a(I4
I1
I2
tp1897
asS'hollerith'
p1898
(lp1899
(I1
I2
I0
tp1900
asS'alexander'
p1901
(lp1902
(I4
I1
I0
tp1903
asS'evolution'
p1904
(lp1905
(I3
I1
I0
tp1906
asS'resource'
p1907
(lp1908
(I2
I1
I0
tp1909
asS'ever'
p1910
(lp1911
(I3
I1
I3
tp1912
asS'naur'
p1913
(lp1914
(I0
I2
I0
tp1915
asS'microscopy'
p1916
(lp1917
(I3
I1
I0
tp1918
asS'method'
p1919
(lp1920
(I4
I4
I0
tp1921
asS'microscope'
p1922
(lp1923
(I3
I1
I0
tp1924
asS'paper'
p1925
(lp1926
(I1
I1
I0
tp1927
asS'common'
p1928
(lp1929
(I0
I1
I2
tp1930
a(I3
I1
I2
tp1931
asS'edsger'
p1932
(lp1933
(I0
I1
I0
tp1934
asS'characteristic'
p1935
(lp1936
(I3
I1
I0
tp1937
a(I4
I2
I0
tp1938
asS'analytical'
p1939
(lp1940
(I1
I2
I2
tp1941
asS'x'
(lp1942
(I2
I1
I0
tp1943
asS'fixed'
p1944
(lp1945
(I3
I1
I1
tp1946
asS'automatic'
p1947
(lp1948
(I0
I1
I2
tp1949
a(I1
I1
I2
tp1950
asS'wrote'
p1951
(lp1952
(I3
I1
I1
tp1953
asS'theophrastu'
p1954
(lp1955
(I3
I1
I0
tp1956
asS'available'
p1957
(lp1958
(I2
I2
I2
tp1959
a(I4
I1
I2
tp1960
asS'set'
p1961
(lp1962
(I2
I1
I0
tp1963
asS'human'
p1964
(lp1965
(I3
I1
I0
tp1966
a(I3
I2
I0
tp1967
a(I3
I1
I2
tp1968
a(I4
I2
I0
tp1969
a(I4
I1
I2
tp1970
asS'observer'
p1971
(lp1972
(I0
I1
I0
tp1973
asS'reported'
p1974
(lp1975
(I2
I1
I1
tp1976
asS'testing'
p1977
(lp1978
(I2
I1
I0
tp1979
asS'lamarck'
p1980
(lp1981
(I3
I3
I0
tp1982
asS'resist'
p1983
(lp1984
(I1
I1
I1
tp1985
asS'culture'
p1986
(lp1987
(I4
I4
I0
tp1988
a(I4
I1
I0
tp1989
asS'computer'
p1990
(lp1991
(I0
I16
I0
tp1992
a(I0
I4
I0
tp1993
a(I1
I8
I0
tp1994
a(I2
I1
I0
tp1995
asS'persian'
p1996
(lp1997
(I3
I1
I0
tp1998
asS'are'
p1999
(lp2000
(I0
I1
I1
tp2001
a(I2
I4
I1
tp2002
a(I3
I2
I1
tp2003
a(I4
I4
I1
tp2004
asS'aristotle'
p2005
(lp2006
(I3
I2
I0
tp2007
asS'biologist'
p2008
(lp2009
(I3
I3
I0
tp2010
asS'greece'
p2011
(lp2012
(I3
I1
I0
tp2013
asS'analog'
p2014
(lp2015
(I1
I1
I0
tp2016
asS'closer'
p2017
(lp2018
(I0
I1
I2
tp2019
asS'project'
p2020
(lp2021
(I3
I2
I0
tp2022
a(I3
I1
I0
tp2023
asS'leaning'
p2024
(lp2025
(I3
I1
I0
tp2026
asS'draws'
p2027
(lp2028
(I4
I1
I1
tp2029
asS'biofuel'
p2030
(lp2031
(I4
I3
I0
tp2032
asS'opening'
p2033
(lp2034
(I1
I1
I1
tp2035
asS'artificial'
p2036
(lp2037
(I3
I1
I2
tp2038
a(I4
I1
I0
tp2039
asS'tend'
p2040
(lp2041
(I0
I1
I0
tp2042
a(I0
I1
I1
tp2043
asS'originated'
p2044
(lp2045
(I3
I1
I1
tp2046
asS'state'
p2047
(lp2048
(I1
I1
I0
tp2049
a(I4
I1
I0
tp2050
asS'various'
p2051
(lp2052
(I0
I1
I2
tp2053
asS'entrant'
p2054
(lp2055
(I2
I1
I0
tp2056
asS'censu'
p2057
(lp2058
(I1
I1
I0
tp2059
asS'swammerdam'
p2060
(lp2061
(I3
I1
I0
tp2062
asS'warren'
p2063
(lp2064
(I3
I1
I0
tp2065
asS'approach'
p2066
(lp2067
(I3
I2
I0
tp2068
a(I4
I1
I0
tp2069
asS'email'
p2070
(lp2071
(I2
I2
I0
tp2072
asS'discovery'
p2073
(lp2074
(I3
I2
I0
tp2075
asS'europe'
p2076
(lp2077
(I0
I1
I0
tp2078
asS'muslim'
p2079
(lp2080
(I3
I1
I0
tp2081
asS'explosive'
p2082
(lp2083
(I4
I1
I0
tp2084
asS'august'
p2085
(lp2086
(I2
I1
I0
tp2087
asS'right'
p2088
(lp2089
(I4
I1
I0
tp2090
asS'complementary'
p2091
(lp2092
(I0
I1
I2
tp2093
asS'importance'
p2094
(lp2095
(I3
I1
I0
tp2096
asS'component'
p2097
(lp2098
(I2
I1
I0
tp2099
a(I3
I1
I0
tp2100
asS'screen'
p2101
(lp2102
(I2
I1
I0
tp2103
asS'incarnation'
p2104
(lp2105
(I1
I1
I0
tp2106
asS'packaged'
p2107
(lp2108
(I2
I1
I1
tp2109
asS'however'
p2110
(lp2111
(I0
I1
I0
tp2112
a(I1
I1
I0
tp2113
a(I3
I2
I0
tp2114
a(I3
I1
I3
tp2115
asS'al-dinawari'
p2116
(lp2117
(I3
I1
I0
tp2118
asS'key'
p2119
(lp2120
(I3
I1
I2
tp2121
asS'news'
p2122
(lp2123
(I4
I1
I0
tp2124
asS'come'
p2125
(lp2126
(I3
I1
I1
tp2127
asS'distribution'
p2128
(lp2129
(I2
I1
I0
tp2130
asS'improve'
p2131
(lp2132
(I4
I1
I1
tp2133
asS'suggested'
p2134
(lp2135
(I0
I1
I0
tp2136
a(I0
I3
I1
tp2137
asS'both'
p2138
(lp2139
(I0
I1
I0
tp2140
asS'informatik'
p2141
(lp2142
(I0
I1
I0
tp2143
asS'improved'
p2144
(lp2145
(I2
I1
I1
tp2146
a(I3
I1
I1
tp2147
a(I4
I1
I1
tp2148
asS'plugin'
p2149
(lp2150
(I2
I1
I0
tp2151
asS'influential'
p2152
(lp2153
(I1
I2
I2
tp2154
asS'country'
p2155
(lp2156
(I0
I1
I0
tp2157
asS'taking'
p2158
(lp2159
(I0
I1
I1
tp2160
asS'according'
p2161
(lp2162
(I2
I1
I0
tp2163
a(I4
I1
I1
tp2164
asS'turingineer'
p2165
(lp2166
(I0
I1
I0
tp2167
asS'etc'
p2168
(lp2169
(I2
I1
I0
tp2170
asS's'
(lp2171
(I4
I1
I1
tp2172
asS'became'
p2173
(lp2174
(I1
I1
I1
tp2175
a(I3
I1
I1
tp2176
a(I4
I2
I1
tp2177
asS'grain'
p2178
(lp2179
(I4
I3
I0
tp2180
asS'/data/app'
p2181
(lp2182
(I2
I1
I2
tp2183
asS'logic'
p2184
(lp2185
(I0
I1
I0
tp2186
asS'focused'
p2187
(lp2188
(I3
I1
I1
tp2189
asS'contribution'
p2190
(lp2191
(I3
I1
I0
tp2192
asS'detailed'
p2193
(lp2194
(I2
I1
I0
tp2195
asS'large-scale'
p2196
(lp2197
(I1
I1
I0
tp2198
asS'ca'
p2199
(lp2200
(I3
I2
I0
tp2201
asS'codon'
p2202
(lp2203
(I3
I1
I0
tp2204
asS'period'
p2205
(lp2206
(I4
I1
I0
tp2207
asS'community'
p2208
(lp2209
(I2
I1
I0
tp2210
asS'petroleum-derived'
p2211
(lp2212
(I4
I1
I2
tp2213
asS'heredity'
p2214
(lp2215
(I3
I1
I0
tp2216
asS'linux'
p2217
(lp2218
(I2
I2
I0
tp2219
asS'\x99'
(lp2220
(I4
I1
I0
tp2221
asS'table'
p2222
(lp2223
(I1
I1
I0
tp2224
asS'desktop'
p2225
(lp2226
(I2
I1
I0
tp2227
asS'qemu'
p2228
(lp2229
(I2
I1
I0
tp2230
asS'chakrabarty'
p2231
(lp2232
(I4
I2
I0
tp2233
asS'java'
p2234
(lp2235
(I2
I2
I0
tp2236
asS'source'
p2237
(lp2238
(I4
I1
I0
tp2239
asS'\xa9'
(lp2240
(I3
I1
I0
tp2241
asS'manufacture'
p2242
(lp2243
(I4
I1
I1
tp2244
asS'create'
p2245
(lp2246
(I2
I1
I1
tp2247
asS'muddied'
p2248
(lp2249
(I0
I1
I1
tp2250
asS'political'
p2251
(lp2252
(I0
I1
I2
tp2253
asS'buffon'
p2254
(lp2255
(I3
I2
I0
tp2256
asS'been'
p2257
(lp2258
(I0
I3
I1
tp2259
a(I1
I1
I1
tp2260
a(I2
I1
I1
tp2261
a(I3
I4
I1
tp2262
a(I4
I2
I1
tp2263
asS'appears'
p2264
(lp2265
(I3
I1
I1
tp2266
asS'genetic'
p2267
(lp2268
(I3
I2
I0
tp2269
a(I3
I1
I2
tp2270
a(I4
I2
I0
tp2271
a(I4
I1
I2
tp2272
asS'much'
p2273
(lp2274
(I0
I1
I2
tp2275
a(I0
I1
I3
tp2276
a(I4
I1
I3
tp2277
asS'growth'
p2278
(lp2279
(I3
I1
I0
tp2280
asS'supplying'
p2281
(lp2282
(I2
I1
I1
tp2283
asS'interest'
p2284
(lp2285
(I3
I1
I0
tp2286
asS'basic'
p2287
(lp2288
(I3
I3
I2
tp2289
a(I4
I1
I2
tp2290
asS'expected'
p2291
(lp2292
(I4
I2
I1
tp2293
asS'linguistic'
p2294
(lp2295
(I0
I1
I0
tp2296
asS'utilizing'
p2297
(lp2298
(I4
I1
I1
tp2299
asS'spermatozoon'
p2300
(lp2301
(I3
I1
I0
tp2302
asS'engine'
p2303
(lp2304
(I1
I2
I0
tp2305
asS'life'
p2306
(lp2307
(I3
I5
I0
tp2308
a(I4
I2
I0
tp2309
asS'citation'
p2310
(lp2311
(I4
I1
I0
tp2312
asS'diversity'
p2313
(lp2314
(I3
I2
I0
tp2315
a(I4
I1
I0
tp2316
asS'patented'
p2317
(lp2318
(I4
I1
I1
tp2319
asS'thousand'
p2320
(lp2321
(I4
I1
I0
tp2322
asS'formed'
p2323
(lp2324
(I0
I1
I1
tp2325
asS'essentially'
p2326
(lp2327
(I3
I1
I3
tp2328
asS'dramatic'
p2329
(lp2330
(I3
I1
I2
tp2331
asS'systematic'
p2332
(lp2333
(I3
I1
I0
tp2334
asS'demand'
p2335
(lp2336
(I4
I2
I0
tp2337
asS'reinhold'
p2338
(lp2339
(I3
I1
I0
tp2340
asS'evidence'
p2341
(lp2342
(I3
I1
I0
tp2343
asS'altered'
p2344
(lp2345
(I4
I1
I1
tp2346
asS'resistant'
p2347
(lp2348
(I4
I1
I2
tp2349
asS'present'
p2350
(lp2351
(I3
I1
I2
tp2352
asS'applied'
p2353
(lp2354
(I0
I2
I1
tp2355
a(I4
I1
I2
tp2356
asS'physician'
p2357
(lp2358
(I3
I2
I0
tp2359
asS'traced'
p2360
(lp2361
(I3
I1
I1
tp2362
asS'domestication'
p2363
(lp2364
(I4
I1
I0
tp2365
asS'virchow'
p2366
(lp2367
(I3
I1
I0
tp2368
asS'these'
p2369
(lp2370
(I1
I1
I0
tp2371
a(I3
I1
I0
tp2372
asS'expanded'
p2373
(lp2374
(I3
I1
I1
tp2375
asS'empirical'
p2376
(lp2377
(I3
I1
I2
tp2378
asS'employ'
p2379
(lp2380
(I4
I1
I0
tp2381
asS'w'
(lp2382
(I3
I1
I0
tp2383
asS'while'
p2384
(lp2385
(I3
I1
I0
tp2386
asS'seed'
p2387
(lp2388
(I4
I1
I0
tp2389
asS'many'
p2390
(lp2391
(I0
I1
I2
tp2392
a(I1
I1
I2
tp2393
a(I4
I1
I2
tp2394
asS'promoted'
p2395
(lp2396
(I3
I1
I1
tp2397
asS'medicinal'
p2398
(lp2399
(I4
I1
I2
tp2400
asS'cracked'
p2401
(lp2402
(I3
I1
I1
tp2403
asS'property'
p2404
(lp2405
(I0
I1
I0
tp2406
a(I4
I1
I0
tp2407
asS'inspired'
p2408
(lp2409
(I3
I1
I1
tp2410
asS'launched'
p2411
(lp2412
(I3
I1
I1
tp2413
asS'succes'
p2414
(lp2415
(I4
I1
I0
tp2416
asS'genu'
p2417
(lp2418
(I4
I1
I0
tp2419
asS'orientation'
p2420
(lp2421
(I0
I1
I0
tp2422
asS'century'
p2423
(lp2424
(I1
I3
I0
tp2425
a(I3
I1
I0
tp2426
a(I4
I1
I0
tp2427
asS'best'
p2428
(lp2429
(I4
I1
I2
tp2430
asS'is'
p2431
(lp2432
(I0
I13
I1
tp2433
a(I1
I2
I1
tp2434
a(I2
I2
I1
tp2435
a(I3
I4
I1
tp2436
a(I4
I12
I1
tp2437
asS'it'
p2438
(lp2439
(I3
I1
I0
tp2440
a(I4
I1
I0
tp2441
asS'leavened'
p2442
(lp2443
(I4
I1
I1
tp2444
asS'hardware'
p2445
(lp2446
(I0
I1
I0
tp2447
asS'middle'
p2448
(lp2449
(I3
I1
I0
tp2450
asS'itself'
p2451
(lp2452
(I0
I1
I0
tp2453
a(I3
I1
I0
tp2454
asS'punched'
p2455
(lp2456
(I1
I1
I1
tp2457
a(I1
I3
I2
tp2458
asS'commonly'
p2459
(lp2460
(I4
I1
I3
tp2461
asS'in'
p2462
(lp2463
(I1
I2
I0
tp2464
a(I3
I3
I0
tp2465
a(I4
I7
I0
tp2466
asS'claimed'
p2467
(lp2468
(I0
I1
I1
tp2469
asS'technology'
p2470
(lp2471
(I0
I1
I0
tp2472
a(I1
I1
I0
tp2473
a(I4
I3
I0
tp2474
asS'greater'
p2475
(lp2476
(I4
I1
I2
tp2477
asS'strangenes'
p2478
(lp2479
(I3
I1
I0
tp2480
asS'containing'
p2481
(lp2482
(I4
I1
I1
tp2483
asS'develop'
p2484
(lp2485
(I3
I1
I1
tp2486
a(I4
I1
I1
tp2487
asS'since'
p2488
(lp2489
(I2
I1
I0
tp2490
asS'trial'
p2491
(lp2492
(I1
I1
I0
tp2493
asS'media'
p2494
(lp2495
(I1
I1
I0
tp2496
asS'make'
p2497
(lp2498
(I0
I1
I1
tp2499
a(I4
I2
I1
tp2500
asS'same'
p2501
(lp2502
(I0
I1
I2
tp2503
a(I3
I1
I2
tp2504
a(I4
I2
I2
tp2505
asS'clearly'
p2506
(lp2507
(I4
I1
I3
tp2508
asS'emphasize'
p2509
(lp2510
(I0
I1
I1
tp2511
asS'widely'
p2512
(lp2513
(I1
I1
I3
tp2514
a(I2
I1
I3
tp2515
asS'largest'
p2516
(lp2517
(I4
I1
I2
tp2518
asS'android'
p2519
(lp2520
(I2
I16
I0
tp2521
asS'several'
p2522
(lp2523
(I0
I1
I2
tp2524
a(I2
I1
I2
tp2525
asS'emulator'
p2526
(lp2527
(I2
I1
I0
tp2528
asS'development'
p2529
(lp2530
(I2
I3
I0
tp2531
a(I2
I6
I0
tp2532
a(I3
I3
I0
tp2533
a(I4
I1
I0
tp2534
asS'neolithic'
p2535
(lp2536
(I4
I1
I0
tp2537
asS'used'
p2538
(lp2539
(I0
I1
I1
tp2540
a(I1
I1
I1
tp2541
a(I4
I7
I1
tp2542
asS'practitioner'
p2543
(lp2544
(I0
I1
I0
tp2545
asS'inadvertently'
p2546
(lp2547
(I4
I1
I3
tp2548
asS'comprehensive'
p2549
(lp2550
(I2
I1
I2
tp2551
asS'downloaded'
p2552
(lp2553
(I2
I2
I1
tp2554
asS'numerical'
p2555
(lp2556
(I0
I1
I2
tp2557
asS'hand'
p2558
(lp2559
(I2
I2
I0
tp2560
asS'running'
p2561
(lp2562
(I2
I1
I1
tp2563
asS'uses'
p2564
(lp2565
(I1
I1
I1
tp2566
a(I4
I2
I1
tp2567
asS'user'
p2568
(lp2569
(I2
I1
I0
tp2570
asS'ernst'
p2571
(lp2572
(I4
I1
I0
tp2573
asS'tradition'
p2574
(lp2575
(I3
I1
I0
tp2576
asS'recent'
p2577
(lp2578
(I3
I1
I2
tp2579
asS'upholding'
p2580
(lp2581
(I3
I1
I0
tp2582
asS'older'
p2583
(lp2584
(I2
I1
I0
tp2585
a(I2
I2
I2
tp2586
asS'i'
(lp2587
(I4
I1
I0
tp2588
asS'bacterium'
p2589
(lp2590
(I3
I1
I0
tp2591
a(I4
I1
I0
tp2592
asS'well'
p2593
(lp2594
(I2
I1
I3
tp2595
a(I3
I1
I3
tp2596
a(I4
I2
I3
tp2597
asS'biogeographical'
p2598
(lp2599
(I3
I1
I2
tp2600
asS'thought'
p2601
(lp2602
(I3
I1
I0
tp2603
a(I3
I1
I1
tp2604
a(I4
I4
I1
tp2605
asS'person'
p2606
(lp2607
(I1
I1
I0
tp2608
asS'directly'
p2609
(lp2610
(I4
I1
I3
tp2611
asS'command'
p2612
(lp2613
(I2
I1
I0
tp2614
asS'thi'
p2615
(lp2616
(I2
I1
I0
tp2617
a(I3
I1
I0
tp2618
asS'inability'
p2619
(lp2620
(I1
I1
I0
tp2621
asS'model'
p2622
(lp2623
(I1
I1
I0
tp2624
a(I3
I1
I0
tp2625
asS'latest'
p2626
(lp2627
(I2
I1
I2
tp2628
asS'restore'
p2629
(lp2630
(I4
I1
I1
tp2631
asS'livestock'
p2632
(lp2633
(I4
I1
I0
tp2634
asS'proposed'
p2635
(lp2636
(I0
I1
I0
tp2637
a(I4
I1
I1
tp2638
asS'heavily'
p2639
(lp2640
(I3
I1
I3
tp2641
asS'being'
p2642
(lp2643
(I0
I1
I1
tp2644
a(I3
I1
I1
tp2645
asS'able'
p2646
(lp2647
(I4
I1
I2
tp2648
asS'deployment'
p2649
(lp2650
(I0
I2
I0
tp2651
asS'product'
p2652
(lp2653
(I4
I5
I0
tp2654
asS'inception'
p2655
(lp2656
(I4
I1
I0
tp2657
asS'select'
p2658
(lp2659
(I4
I1
I1
tp2660
asS'stored'
p2661
(lp2662
(I2
I1
I1
tp2663
asS'aspect'
p2664
(lp2665
(I0
I1
I0
tp2666
asS'world'
p2667
(lp2668
(I3
I1
I0
tp2669
a(I4
I1
I0
tp2670
asS'useful'
p2671
(lp2672
(I0
I1
I2
tp2673
a(I1
I1
I2
tp2674
asS'alternative'
p2675
(lp2676
(I0
I1
I0
tp2677
asS'indian'
p2678
(lp2679
(I3
I1
I0
tp2680
a(I4
I1
I0
tp2681
asS'alignment'
p2682
(lp2683
(I0
I1
I0
tp2684
asS'discipline'
p2685
(lp2686
(I0
I7
I0
tp2687
asS'adding'
p2688
(lp2689
(I4
I1
I1
tp2690
asS'adt'
p2691
(lp2692
(I2
I1
I0
tp2693
asS'breaking'
p2694
(lp2695
(I4
I1
I0
tp2696
asS'educationally'
p2697
(lp2698
(I0
I1
I3
tp2699
asS'thinking'
p2700
(lp2701
(I3
I2
I0
tp2702
asS'regarded'
p2703
(lp2704
(I1
I1
I1
tp2705
asS'supply'
p2706
(lp2707
(I4
I1
I0
tp2708
asS'had'
p2709
(lp2710
(I1
I2
I1
tp2711
a(I3
I1
I1
tp2712
a(I4
I1
I1
tp2713
asS'the'
p2714
(lp2715
(I0
I3
I0
tp2716
a(I2
I4
I0
tp2717
a(I3
I2
I0
tp2718
a(I4
I3
I0
tp2719
asS'drew'
p2720
(lp2721
(I3
I1
I0
tp2722
asS'friedrich'
p2723
(lp2724
(I3
I1
I0
tp2725
asS'cue'
p2726
(lp2727
(I0
I1
I0
tp2728
asS'book'
p2729
(lp2730
(I3
I1
I0
tp2731
asS'treatment'
p2732
(lp2733
(I0
I1
I0
tp2734
asS'technological'
p2735
(lp2736
(I4
I1
I2
tp2737
asS'usage'
p2738
(lp2739
(I4
I1
I0
tp2740
asS'role'
p2741
(lp2742
(I1
I1
I0
tp2743
a(I4
I1
I0
tp2744
asS'har'
p2745
(lp2746
(I3
I1
I0
tp2747
asS'has'
p2748
(lp2749
(I0
I4
I1
tp2750
a(I2
I1
I1
tp2751
a(I3
I1
I1
tp2752
a(I4
I3
I1
tp2753
asS'gave'
p2754
(lp2755
(I1
I1
I1
tp2756
asS'kingdom'
p2757
(lp2758
(I4
I1
I0
tp2759
asS'bio'
p2760
(lp2761
(I3
I1
I0
tp2762
asS'format'
p2763
(lp2764
(I2
I1
I0
tp2765
asS'hydrog'
p2766
(lp2767
(I3
I1
I0
tp2768
asS'early'
p2769
(lp2770
(I0
I1
I0
tp2771
a(I0
I1
I2
tp2772
a(I3
I2
I2
tp2773
a(I3
I1
I3
tp2774
a(I4
I1
I2
tp2775
a(I4
I1
I3
tp2776
asS'possibly'
p2777
(lp2778
(I0
I1
I3
tp2779
asS'fusion'
p2780
(lp2781
(I1
I1
I0
tp2782
asS'marked'
p2783
(lp2784
(I3
I1
I1
tp2785
asS'vacuum'
p2786
(lp2787
(I1
I1
I0
tp2788
asS'using'
p2789
(lp2790
(I2
I1
I1
tp2791
a(I4
I4
I1
tp2792
asS'desperately'
p2793
(lp2794
(I4
I1
I3
tp2795
asS'accepted'
p2796
(lp2797
(I3
I1
I1
tp2798
asS'leclerc'
p2799
(lp2800
(I3
I1
I0
tp2801
asS'formal'
p2802
(lp2803
(I3
I1
I2
tp2804
asS'as'
p2805
(lp2806
(I4
I2
I3
tp2807
asS'cognitive'
p2808
(lp2809
(I0
I1
I2
tp2810
asS'bioproces'
p2811
(lp2812
(I4
I1
I0
tp2813
asS'specific'
p2814
(lp2815
(I0
I1
I2
tp2816
a(I4
I1
I0
tp2817
a(I4
I3
I2
tp2818
asS'edit'
p2819
(lp2820
(I2
I1
I1
tp2821
asS'api'
p2822
(lp2823
(I2
I2
I0
tp2824
asS'become'
p2825
(lp2826
(I4
I1
I1
tp2827
asS'security'
p2828
(lp2829
(I2
I1
I0
tp2830
asS'mathematical'
p2831
(lp2832
(I0
I3
I2
tp2833
asS'worldwide'
p2834
(lp2835
(I4
I1
I0
tp2836
asS'because'
p2837
(lp2838
(I0
I1
I0
tp2839
asS'often'
p2840
(lp2841
(I0
I2
I3
tp2842
a(I3
I1
I3
tp2843
asS'hierarchy'
p2844
(lp2845
(I3
I1
I0
tp2846
asS'soma'
p2847
(lp2848
(I4
I1
I0
tp2849
asS'creation'
p2850
(lp2851
(I1
I1
I0
tp2852
asS'back'
p2853
(lp2854
(I3
I2
I3
tp2855
a(I4
I1
I3
tp2856
asS'library'
p2857
(lp2858
(I2
I1
I0
tp2859
asS'hippocrate'
p2860
(lp2861
(I3
I1
I0
tp2862
asS'understood'
p2863
(lp2864
(I3
I1
I1
tp2865
a(I4
I1
I1
tp2866
asS'babbage'
p2867
(lp2868
(I1
I3
I0
tp2869
asS'bori'
p2870
(lp2871
(I4
I1
I0
tp2872
asS'statistic'
p2873
(lp2874
(I0
I1
I0
tp2875
asS'comptologist'
p2876
(lp2877
(I0
I1
I0
tp2878
asS'home'
p2879
(lp2880
(I2
I1
I0
tp2881
asS'yeast'
p2882
(lp2883
(I4
I1
I0
tp2884
asS'peter'
p2885
(lp2886
(I0
I2
I0
tp2887
asS'tutorial'
p2888
(lp2889
(I2
I1
I0
tp2890
asS'holley'
p2891
(lp2892
(I3
I1
I0
tp2893
asS'provided'
p2894
(lp2895
(I1
I1
I1
tp2896
a(I2
I1
I1
tp2897
asS'throughout'
p2898
(lp2899
(I4
I1
I0
tp2900
asS'for'
p2901
(lp2902
(I0
I1
I0
tp2903
a(I4
I2
I0
tp2904
asS'broad'
p2905
(lp2906
(I4
I1
I2
tp2907
asS'tube'
p2908
(lp2909
(I1
I1
I0
tp2910
asS'extensively'
p2911
(lp2912
(I3
I1
I3
tp2913
asS'philosopher'
p2914
(lp2915
(I3
I2
I0
tp2916
asS'tabulator'
p2917
(lp2918
(I1
I1
I0
tp2919
asS'does'
p2920
(lp2921
(I0
I1
I1
tp2922
asS'treviranu'
p2923
(lp2924
(I3
I1
I0
tp2925
asS'schleiden'
p2926
(lp2927
(I3
I1
I0
tp2928
asS'core'
p2929
(lp2930
(I1
I1
I0
tp2931
asS'biology'
p2932
(lp2933
(I3
I1
I0
tp2934
a(I3
I7
I0
tp2935
a(I4
I4
I0
tp2936
asS'aristotelian'
p2937
(lp2938
(I3
I1
I0
tp2939
asS'scientific'
p2940
(lp2941
(I0
I3
I2
tp2942
a(I1
I1
I2
tp2943
a(I3
I1
I2
tp2944
a(I4
I1
I2
tp2945
asS'energy'
p2946
(lp2947
(I4
I1
I0
tp2948
asS'bc'
p2949
(lp2950
(I3
I4
I0
tp2951
asS'informatica'
p2952
(lp2953
(I0
I1
I1
tp2954
asS'processing'
p2955
(lp2956
(I1
I1
I0
tp2957
a(I1
I1
I1
tp2958
asS'executable'
p2959
(lp2960
(I2
I1
I2
tp2961
asS'defines'
p2962
(lp2963
(I4
I1
I1
tp2964
asS'lyceum'
p2965
(lp2966
(I3
I1
I0
tp2967
asS'step'
p2968
(lp2969
(I3
I1
I0
tp2970
asS'although'
p2971
(lp2972
(I3
I1
I0
tp2973
a(I4
I1
I0
tp2974
asS'sweetest'
p2975
(lp2976
(I4
I1
I2
tp2977
asS'dna'
p2978
(lp2979
(I3
I3
I0
tp2980
asS'manufacturing'
p2981
(lp2982
(I4
I2
I0
tp2983
asS'by'
p2984
(lp2985
(I1
I1
I0
tp2986
a(I4
I2
I0
tp2987
asS'earlier'
p2988
(lp2989
(I2
I1
I2
tp2990
asS'teleprinter'
p2991
(lp2992
(I1
I1
I0
tp2993
asS'gained'
p2994
(lp2995
(I4
I1
I1
tp2996
asS'on'
p2997
(lp2998
(I2
I3
I0
tp2999
asS'georges-loui'
p3000
(lp3001
(I3
I1
I0
tp3002
asS'central'
p3003
(lp3004
(I3
I1
I2
tp3005
asS'consumption'
p3006
(lp3007
(I4
I1
I0
tp3008
asS'package'
p3009
(lp3010
(I2
I2
I0
tp3011
asS'of'
p3012
(lp3013
(I3
I1
I0
tp3014
asS'industry'
p3015
(lp3016
(I1
I1
I0
tp3017
a(I4
I3
I0
tp3018
asS'howard'
p3019
(lp3020
(I4
I1
I0
tp3021
asS'biologie'
p3022
(lp3023
(I3
I1
I0
tp3024
asS'acm'
p3025
(lp3026
(I0
I1
I0
tp3027
asS'practical'
p3028
(lp3029
(I0
I1
I2
tp3030
a(I1
I1
I2
tp3031
asS'magazine'
p3032
(lp3033
(I1
I1
I0
tp3034
asS'own'
p3035
(lp3036
(I3
I1
I2
tp3037
asS'improvement'
p3038
(lp3039
(I3
I1
I0
tp3040
a(I4
I1
I0
tp3041
asS'lacked'
p3042
(lp3043
(I1
I1
I1
tp3044
asS'ide'
p3045
(lp3046
(I2
I1
I0
tp3047
asS'software'
p3048
(lp3049
(I0
I3
I0
tp3050
a(I2
I2
I0
tp3051
asS'microscopic'
p3052
(lp3053
(I3
I2
I2
tp3054
asS'accessible'
p3055
(lp3056
(I2
I1
I2
tp3057
asS'computational'
p3058
(lp3059
(I0
I1
I2
tp3060
asS'emphasi'
p3061
(lp3062
(I0
I3
I0
tp3063
a(I4
I1
I0
tp3064
asS'microorganism'
p3065
(lp3066
(I4
I1
I0
tp3067
asS'interfacing'
p3068
(lp3069
(I4
I1
I0
tp3070
asS'communication'
p3071
(lp3072
(I0
I1
I0
tp3073
asS'marshall'
p3074
(lp3075
(I3
I1
I0
tp3076
asS'helical'
p3077
(lp3078
(I3
I1
I2
tp3079
asS'functional'
p3080
(lp3081
(I3
I1
I2
tp3082
asS'intellectual'
p3083
(lp3084
(I4
I1
I2
tp3085
asS'son'
p3086
(lp3087
(I1
I1
I0
tp3088
asS'globalized'
p3089
(lp3090
(I3
I1
I2
tp3091
asS'charle'
p3092
(lp3093
(I1
I1
I0
tp3094
a(I3
I1
I0
tp3095
asS'rising'
p3096
(lp3097
(I4
I1
I0
tp3098
asS'malthu'
p3099
(lp3100
(I3
I1
I0
tp3101
asS'zoology'
p3102
(lp3103
(I3
I1
I0
tp3104
asS'accumulated'
p3105
(lp3106
(I3
I1
I1
tp3107
asS'biorobotic'
p3108
(lp3109
(I4
I1
I0
tp3110
asS'quickly'
p3111
(lp3112
(I3
I1
I3
tp3113
asS'pharmaceutical'
p3114
(lp3115
(I4
I1
I2
tp3116
asS'van'
p3117
(lp3118
(I3
I1
I0
tp3119
asS'nirenberg'
p3120
(lp3121
(I3
I1
I0
tp3122
asS'area'
p3123
(lp3124
(I0
I1
I0
tp3125
a(I2
I1
I0
tp3126
asS'estimating'
p3127
(lp3128
(I4
I1
I0
tp3129
asS'museum'
p3130
(lp3131
(I1
I1
I0
tp3132
asS'initial'
p3133
(lp3134
(I1
I1
I2
tp3135
asS'legislation'
p3136
(lp3137
(I4
I1
I0
tp3138
asS'-logia'
p3139
(lp3140
(I3
I1
I0
tp3141
asS'philosophie'
p3142
(lp3143
(I3
I1
I0
tp3144
asS'continental'
p3145
(lp3146
(I0
I1
I2
tp3147
asS'pseudomona'
p3148
(lp3149
(I4
I1
I0
tp3150
asS'heatley'
p3151
(lp3152
(I4
I1
I0
tp3153
asS'downloadable'
p3154
(lp3155
(I2
I1
I2
tp3156
asS'editor'
p3157
(lp3158
(I2
I1
I0
tp3159
asS'frustration'
p3160
(lp3161
(I2
I1
I0
tp3162
asS'breeding'
p3163
(lp3164
(I4
I2
I0
tp3165
a(I4
I2
I1
tp3166
asS'was'
p3167
(lp3168
(I0
I3
I1
tp3169
a(I1
I5
I1
tp3170
a(I2
I6
I1
tp3171
a(I3
I11
I1
tp3172
a(I4
I3
I1
tp3173
asS'war'
p3174
(lp3175
(I4
I1
I0
tp3176
asS'treat'
p3177
(lp3178
(I4
I1
I1
tp3179
asS'blueprint'
p3180
(lp3181
(I1
I1
I0
tp3182
asS'medium'
p3183
(lp3184
(I1
I1
I0
tp3185
asS'form'
p3186
(lp3187
(I3
I2
I0
tp3188
a(I4
I3
I0
tp3189
asS'enough'
p3190
(lp3191
(I4
I1
I2
tp3192
asS'refined'
p3193
(lp3194
(I4
I1
I1
tp3195
asS'oil'
p3196
(lp3197
(I4
I2
I0
tp3198
asS'sophisticated'
p3199
(lp3200
(I1
I1
I2
tp3201
asS'hi'
p3202
(lp3203
(I4
I1
I0
tp3204
asS'survived'
p3205
(lp3206
(I3
I1
I1
tp3207
asS'automated'
p3208
(lp3209
(I1
I1
I1
tp3210
asS'line'
p3211
(lp3212
(I2
I1
I0
tp3213
asS'highest'
p3214
(lp3215
(I4
I1
I2
tp3216
asS'bug'
p3217
(lp3218
(I2
I1
I0
tp3219
asS'sdk'
p3220
(lp3221
(I2
I8
I0
tp3222
asS'input'
p3223
(lp3224
(I4
I1
I0
tp3225
asS'wish'
p3226
(lp3227
(I2
I1
I0
tp3228
asS'attached'
p3229
(lp3230
(I2
I1
I1
tp3231
asS'gottfried'
p3232
(lp3233
(I3
I1
I0
tp3234
asS'economic'
p3235
(lp3236
(I0
I1
I0
tp3237
asS'pest'
p3238
(lp3239
(I4
I2
I0
tp3240
asS'problem'
p3241
(lp3242
(I1
I1
I0
tp3243
asS'dalvik'
p3244
(lp3245
(I2
I1
I0
tp3246
asS'similar'
p3247
(lp3248
(I3
I1
I2
tp3249
a(I4
I1
I2
tp3250
asS'called'
p3251
(lp3252
(I0
I1
I1
tp3253
a(I2
I1
I1
tp3254
asS'nature'
p3255
(lp3256
(I3
I1
I0
tp3257
asS'strongly'
p3258
(lp3259
(I0
I1
I3
tp3260
asS'supreme'
p3261
(lp3262
(I4
I1
I0
tp3263
asS'computing'
p3264
(lp3265
(I0
I2
I0
tp3266
a(I0
I2
I1
tp3267
a(I1
I3
I0
tp3268
asS'defined'
p3269
(lp3270
(I0
I1
I0
tp3271
asS'certain'
p3272
(lp3273
(I0
I1
I0
tp3274
asS'handset'
p3275
(lp3276
(I2
I1
I0
tp3277
asS'combining'
p3278
(lp3279
(I3
I1
I1
tp3280
asS'general'
p3281
(lp3282
(I0
I1
I2
tp3283
a(I3
I1
I2
tp3284
a(I4
I1
I0
tp3285
asS'carbohydrate'
p3286
(lp3287
(I4
I1
I0
tp3288
asS'modify'
p3289
(lp3290
(I4
I1
I1
tp3291
asS'engineering'
p3292
(lp3293
(I0
I6
I0
tp3294
a(I4
I1
I0
tp3295
a(I4
I4
I0
tp3296
asS'expertise'
p3297
(lp3298
(I3
I1
I0
tp3299
asS'file'
p3300
(lp3301
(I2
I4
I0
tp3302
asS'biotechnological'
p3303
(lp3304
(I4
I2
I2
tp3305
asS'russel'
p3306
(lp3307
(I3
I1
I0
tp3308
asS'chromosome'
p3309
(lp3310
(I3
I1
I0
tp3311
asS'physical'
p3312
(lp3313
(I3
I1
I2
tp3314
asS'mathematic'
p3315
(lp3316
(I0
I4
I0
tp3317
asS'renowned'
p3318
(lp3319
(I0
I1
I1
tp3320
asS'%'
(lp3321
(I4
I2
I0
tp3322
asS'biochemistry'
p3323
(lp3324
(I4
I1
I0
tp3325
asS'nitrogen'
p3326
(lp3327
(I4
I1
I0
tp3328
asS'generally'
p3329
(lp3330
(I0
I1
I3
tp3331
a(I1
I1
I3
tp3332
a(I4
I1
I3
tp3333
asS'field'
p3334
(lp3335
(I0
I3
I0
tp3336
a(I4
I5
I0
tp3337
asS'other'
p3338
(lp3339
(I0
I3
I2
tp3340
a(I2
I1
I0
tp3341
a(I3
I3
I2
tp3342
a(I4
I1
I0
tp3343
a(I4
I6
I2
tp3344
asS'electrical'
p3345
(lp3346
(I1
I1
I2
tp3347
asS'genome'
p3348
(lp3349
(I3
I2
I0
tp3350
a(I3
I1
I0
tp3351
asS'digital'
p3352
(lp3353
(I1
I1
I0
tp3354
a(I1
I1
I2
tp3355
asS'department'
p3356
(lp3357
(I0
I1
I0
tp3358
a(I0
I4
I0
tp3359
a(I4
I1
I0
tp3360
asS'datalogy'
p3361
(lp3362
(I0
I1
I0
tp3363
a(I0
I2
I0
tp3364
asS'hypologist'
p3365
(lp3366
(I0
I1
I0
tp3367
asS'conclusion'
p3368
(lp3369
(I3
I1
I0
tp3370
asS'infusoria'
p3371
(lp3372
(I3
I1
I0
tp3373
asS'cell-'
p3374
(lp3375
(I4
I1
I2
tp3376
asS'separate'
p3377
(lp3378
(I0
I1
I2
tp3379
asS'enterprise'
p3380
(lp3381
(I4
I1
I0
tp3382
asS'june'
p3383
(lp3384
(I4
I1
I0
tp3385
asS'variation'
p3386
(lp3387
(I3
I1
I0
tp3388
asS'includes'
p3389
(lp3390
(I2
I1
I1
tp3391
a(I4
I2
I1
tp3392
asS'important'
p3393
(lp3394
(I3
I2
I2
tp3395
asS'suited'
p3396
(lp3397
(I4
I1
I1
tp3398
asS'biotechnology'
p3399
(lp3400
(I4
I4
I0
tp3401
a(I4
I15
I0
tp3402
asS'included'
p3403
(lp3404
(I2
I2
I1
tp3405
a(I3
I1
I1
tp3406
asS'astronomy'
p3407
(lp3408
(I0
I1
I0
tp3409
asS'range'
p3410
(lp3411
(I4
I1
I0
tp3412
asS'structure'
p3413
(lp3414
(I3
I1
I0
tp3415
asS'independently'
p3416
(lp3417
(I3
I2
I3
tp3418
asS'algorithm'
p3419
(lp3420
(I1
I1
I0
tp3421
asS'fertilize'
p3422
(lp3423
(I4
I1
I1
tp3424
asS'age'
p3425
(lp3426
(I3
I1
I0
tp3427
asS'required'
p3428
(lp3429
(I2
I1
I1
tp3430
a(I4
I1
I1
tp3431
asS'ensuring'
p3432
(lp3433
(I4
I1
I0
tp3434
asS'came'
p3435
(lp3436
(I3
I2
I1
tp3437
asS'time'
p3438
(lp3439
(I1
I1
I0
tp3440
a(I2
I1
I0
tp3441
a(I3
I2
I0
tp3442
a(I4
I1
I0
tp3443
asS'offspring'
p3444
(lp3445
(I4
I1
I1
tp3446
asS'serious'
p3447
(lp3448
(I3
I1
I2
tp3449
asS'having'
p3450
(lp3451
(I4
I1
I1
tp3452
asS'classical'
p3453
(lp3454
(I3
I1
I2
tp3455
asS'intimately'
p3456
(lp3457
(I4
I1
I3
tp3458
as.