(dp1
S''
(lp2
(I0
I2
I0
tp3
a(I1
I10
I0
tp4
asS'limited'
p5
(lp6
(I0
I1
I0
tp7
asS'concept'
p8
(lp9
(I0
I1
I0
tp10
asS'consider'
p11
(lp12
(I1
I1
I0
tp13
asS'focus'
p14
(lp15
(I1
I2
I0
tp16
asS'founded'
p17
(lp18
(I1
I1
I1
tp19
asS'computation'
p20
(lp21
(I0
I2
I0
tp22
a(I1
I1
I0
tp23
asS'mill'
p24
(lp25
(I0
I1
I0
tp26
asS'depend'
p27
(lp28
(I1
I1
I1
tp29
asS'father'
p30
(lp31
(I0
I1
I0
tp32
asS'program'
p33
(lp34
(I0
I1
I0
tp35
asS'continues'
p36
(lp37
(I1
I1
I1
tp38
asS'difference'
p39
(lp40
(I1
I1
I0
tp41
asS'conceptualize'
p42
(lp43
(I0
I1
I1
tp44
asS'20th'
p45
(lp46
(I0
I2
I2
tp47
asS'\x80'
(lp48
(I1
I1
I0
tp49
asS'disciplines'
p50
(lp51
(I1
I6
I0
tp52
asS'core'
p53
(lp54
(I0
I1
I0
tp55
asS'direct'
p56
(lp57
(I0
I1
I2
tp58
asS'design'
p59
(lp60
(I0
I2
I0
tp61
a(I1
I2
I0
tp62
asS'further'
p63
(lp64
(I1
I1
I3
tp65
asS'copenhagen'
p66
(lp67
(I1
I1
I0
tp68
asS'machines'
p69
(lp70
(I0
I1
I0
tp71
asS'universities'
p72
(lp73
(I1
I1
I0
tp74
asS'appear'
p75
(lp76
(I0
I1
I1
tp77
asS'revolves'
p78
(lp79
(I1
I1
I1
tp80
asS'computics'
p81
(lp82
(I1
I1
I0
tp83
asS'19th'
p84
(lp85
(I0
I1
I2
tp86
asS'version'
p87
(lp88
(I0
I1
I0
tp89
asS'del'
p90
(lp91
(I1
I1
I0
tp92
asS'journal'
p93
(lp94
(I1
I1
I0
tp95
asS'never'
p96
(lp97
(I0
I1
I3
tp98
asS'commercial'
p99
(lp100
(I1
I1
I2
tp101
asS'french'
p102
(lp103
(I1
I1
I2
tp104
asS'met'
p105
(lp106
(I0
I1
I1
tp107
asS'invented'
p108
(lp109
(I0
I2
I1
tp110
asS'algebra'
p111
(lp112
(I0
I1
I0
tp113
a(I1
I1
I0
tp114
asS'study'
p115
(lp116
(I1
I3
I0
tp117
asS'economics'
p118
(lp119
(I1
I1
I0
tp120
asS'turologist'
p121
(lp122
(I1
I1
I0
tp123
asS'prior'
p124
(lp125
(I0
I1
I0
tp126
asS'amount'
p127
(lp128
(I1
I1
I0
tp129
asS'keypunch'
p130
(lp131
(I0
I1
I0
tp132
asS'computer-related'
p133
(lp134
(I1
I1
I2
tp135
asS'usually'
p136
(lp137
(I1
I1
I3
tp138
asS'settled'
p139
(lp140
(I0
I1
I1
tp141
asS'followed'
p142
(lp143
(I1
I1
I1
tp144
asS'prefer'
p145
(lp146
(I1
I1
I1
tp147
asS'boolean'
p148
(lp149
(I0
I1
I0
tp150
asS'names'
p151
(lp152
(I1
I2
I0
tp153
a(I1
I1
I1
tp154
asS'unit'
p155
(lp156
(I0
I1
I0
tp157
asS'use'
p158
(lp159
(I0
I1
I0
tp160
a(I1
I1
I1
tp161
asS'working'
p162
(lp163
(I0
I1
I1
tp164
asS'prove'
p165
(lp166
(I0
I1
I1
tp167
asS'remains'
p168
(lp169
(I0
I1
I1
tp170
asS'readable'
p171
(lp172
(I0
I2
I2
tp173
asS'by'
p174
(lp175
(I0
I1
I0
tp176
asS'process'
p177
(lp178
(I0
I1
I0
tp179
asS'themselves'
p180
(lp181
(I1
I1
I0
tp182
asS'more'
p183
(lp184
(I1
I2
I3
tp185
asS'successful'
p186
(lp187
(I0
I1
I2
tp188
asS'company'
p189
(lp190
(I0
I1
I0
tp191
asS'thermionic'
p192
(lp193
(I0
I1
I2
tp194
asS'states'
p195
(lp196
(I0
I1
I0
tp197
a(I0
I1
I1
tp198
asS'ibm'
p199
(lp200
(I0
I1
I0
tp201
asS'science'
p202
(lp203
(I0
I1
I0
tp204
a(I0
I1
I0
tp205
a(I1
I16
I0
tp206
asS'work'
p207
(lp208
(I1
I1
I0
tp209
asS'crossed'
p210
(lp211
(I1
I1
I1
tp212
asS'henry'
p213
(lp214
(I0
I1
I0
tp215
asS'making'
p216
(lp217
(I1
I1
I1
tp218
asS'example'
p219
(lp220
(I1
I1
I0
tp221
asS'control'
p222
(lp223
(I0
I1
I0
tp224
asS'informatique'
p225
(lp226
(I1
I1
I2
tp227
asS'stated'
p228
(lp229
(I1
I1
I1
tp230
asS'calculation'
p231
(lp232
(I0
I1
I0
tp233
asS'involve'
p234
(lp235
(I1
I1
I1
tp236
asS'performed'
p237
(lp238
(I0
I1
I1
tp239
asS'influenced'
p240
(lp241
(I1
I1
I1
tp242
asS'needs'
p243
(lp244
(I0
I1
I1
tp245
asS'united'
p246
(lp247
(I0
I1
I0
tp248
asS'end'
p249
(lp250
(I0
I1
I0
tp251
asS'spreadsheet'
p252
(lp253
(I0
I1
I0
tp254
asS'machine'
p255
(lp256
(I0
I5
I0
tp257
asS'\xb6'
(lp258
(I1
I1
I0
tp259
asS'information'
p260
(lp261
(I0
I1
I0
tp262
a(I1
I3
I0
tp263
asS'turing'
p264
(lp265
(I0
I5
I0
tp266
a(I1
I1
I0
tp267
asS'computer/computation'
p268
(lp269
(I1
I1
I0
tp270
asS'derived'
p271
(lp272
(I1
I2
I1
tp273
asS'reflect'
p274
(lp275
(I1
I1
I1
tp276
asS'such'
p277
(lp278
(I1
I4
I2
tp279
asS'data'
p280
(lp281
(I0
I3
I0
tp282
a(I1
I2
I0
tp283
asS'lacked'
p284
(lp285
(I0
I1
I1
tp286
asS'types'
p287
(lp288
(I1
I1
I0
tp289
asS'computations'
p290
(lp291
(I1
I1
I0
tp292
asS'kurt'
p293
(lp294
(I1
I1
I0
tp295
asS'cross-fertilization'
p296
(lp297
(I1
I1
I0
tp298
asS'mainly'
p299
(lp300
(I1
I1
I3
tp301
asS'produced'
p302
(lp303
(I0
I1
I1
tp304
asS'mathematicians'
p305
(lp306
(I1
I1
I0
tp307
asS'paper'
p308
(lp309
(I0
I1
I0
tp310
asS'flow-charts-man'
p311
(lp312
(I1
I1
I2
tp313
asS'keyboard'
p314
(lp315
(I0
I1
I0
tp316
asS'linguistics'
p317
(lp318
(I1
I1
I0
tp319
asS'late'
p320
(lp321
(I0
I1
I2
tp322
asS'systems'
p323
(lp324
(I1
I3
I0
tp325
asS'not'
p326
(lp327
(I0
I2
I3
tp328
a(I1
I3
I3
tp329
asS'term'
p330
(lp331
(I1
I6
I0
tp332
asS'name'
p333
(lp334
(I1
I1
I0
tp335
asS'fully'
p336
(lp337
(I0
I1
I3
tp338
asS'university'
p339
(lp340
(I1
I1
I0
tp341
asS'formalisation'
p342
(lp343
(I0
I1
I0
tp344
asS'domain'
p345
(lp346
(I1
I1
I0
tp347
asS'everyone'
p348
(lp349
(I0
I1
I0
tp350
asS'begun'
p351
(lp352
(I0
I1
I1
tp353
asS'year'
p354
(lp355
(I1
I1
I0
tp356
asS'naming'
p357
(lp358
(I0
I1
I0
tp359
asS'recognizable'
p360
(lp361
(I0
I1
I2
tp362
asS'category'
p363
(lp364
(I1
I1
I0
tp365
asS'funding'
p366
(lp367
(I1
I1
I0
tp368
asS'valve'
p369
(lp370
(I0
I1
I0
tp371
asS'kensington'
p372
(lp373
(I0
I1
I0
tp374
asS'research'
p375
(lp376
(I1
I2
I0
tp377
asS'dutch'
p378
(lp379
(I1
I1
I2
tp380
asS'issue'
p381
(lp382
(I1
I1
I0
tp383
asS'foundation'
p384
(lp385
(I0
I1
I0
tp386
asS'after'
p387
(lp388
(I0
I1
I0
tp389
asS'theory'
p390
(lp391
(I1
I2
I0
tp392
asS'disputes'
p393
(lp394
(I1
I1
I0
tp395
asS'telescopes'
p396
(lp397
(I1
I1
I0
tp398
asS'card'
p399
(lp400
(I0
I1
I0
tp401
asS'g'
(lp402
(I1
I1
I0
tp403
asS'computers'
p404
(lp405
(I0
I4
I0
tp406
a(I1
I4
I0
tp407
asS'days'
p408
(lp409
(I1
I1
I0
tp410
asS'david'
p411
(lp412
(I1
I1
I0
tp413
asS'epistemologist'
p414
(lp415
(I1
I1
I0
tp416
asS'south'
p417
(lp418
(I0
I1
I0
tp419
asS'first'
p420
(lp421
(I0
I3
I2
tp422
a(I1
I2
I2
tp423
asS'major'
p424
(lp425
(I1
I1
I2
tp426
asS'number'
p427
(lp428
(I0
I1
I0
tp429
a(I1
I1
I0
tp430
asS'simplified'
p431
(lp432
(I0
I1
I1
tp433
asS'precisely'
p434
(lp435
(I1
I1
I3
tp436
asS'electronic'
p437
(lp438
(I0
I1
I2
tp439
asS'interchange'
p440
(lp441
(I1
I1
I0
tp442
asS'given'
p443
(lp444
(I0
I1
I1
tp445
asS'"'
(lp446
(I1
I2
I0
tp447
asS'practitioners'
p448
(lp449
(I1
I1
I0
tp450
asS'parnas'
p451
(lp452
(I1
I1
I0
tp453
asS'tinkering'
p454
(lp455
(I0
I1
I0
tp456
asS'realization'
p457
(lp458
(I0
I1
I0
tp459
asS'programmable'
p460
(lp461
(I0
I2
I2
tp462
asS'finances'
p463
(lp464
(I0
I1
I0
tp465
asS'danish'
p466
(lp467
(I1
I1
I0
tp468
asS'relationship'
p469
(lp470
(I1
I3
I0
tp471
asS'completed'
p472
(lp473
(I0
I2
I1
tp474
asS'alan'
p475
(lp476
(I0
I1
I0
tp477
a(I1
I1
I0
tp478
asS'part'
p479
(lp480
(I1
I1
I0
tp481
asS'institution'
p482
(lp483
(I1
I1
I0
tp484
asS'scandinavian'
p485
(lp486
(I1
I1
I2
tp487
asS'recording'
p488
(lp489
(I0
I1
I0
tp490
asS'were'
p491
(lp492
(I0
I3
I1
tp493
a(I1
I1
I1
tp494
asS'cards'
p495
(lp496
(I0
I3
I0
tp497
asS'providing'
p498
(lp499
(I0
I1
I1
tp500
asS'bridge'
p501
(lp502
(I1
I1
I1
tp503
asS'contentious'
p504
(lp505
(I1
I1
I2
tp506
asS'modern'
p507
(lp508
(I0
I4
I2
tp509
asS'have'
p510
(lp511
(I1
I2
I1
tp512
asS'programmability'
p513
(lp514
(I0
I1
I0
tp515
asS'demonstration'
p516
(lp517
(I0
I1
I0
tp518
asS'studying'
p519
(lp520
(I1
I1
I1
tp521
asS'ideas'
p522
(lp523
(I1
I2
I0
tp524
asS'also'
p525
(lp526
(I1
I1
I0
tp527
a(I1
I2
I3
tp528
asS'emphasis'
p529
(lp530
(I1
I3
I0
tp531
asS'accuracy'
p532
(lp533
(I0
I1
I0
tp534
asS'province'
p535
(lp536
(I1
I1
I0
tp537
asS'philosophy'
p538
(lp539
(I1
I1
I0
tp540
asS'meta-mathematician'
p541
(lp542
(I1
I1
I2
tp543
asS'most'
p544
(lp545
(I0
I1
I2
tp546
asS'involving'
p547
(lp548
(I1
I1
I1
tp549
asS'significant'
p550
(lp551
(I1
I1
I2
tp552
asS'device'
p553
(lp554
(I0
I1
I0
tp555
asS'herman'
p556
(lp557
(I0
I1
I0
tp558
asS'\xe2'
(lp559
(I1
I1
I0
tp560
asS'considered'
p561
(lp562
(I1
I3
I1
tp563
asS'professor'
p564
(lp565
(I1
I1
I0
tp566
asS'later'
p567
(lp568
(I0
I1
I1
tp569
a(I0
I1
I2
tp570
a(I1
I1
I2
tp571
asS'mechanical'
p572
(lp573
(I0
I2
I2
tp574
asS'physics'
p575
(lp576
(I1
I1
I0
tp577
asS'fact'
p578
(lp579
(I0
I1
I0
tp580
a(I1
I1
I0
tp581
asS'saying'
p582
(lp583
(I1
I1
I1
tp584
asS'german'
p585
(lp586
(I1
I1
I0
tp587
asS'charles'
p588
(lp589
(I0
I1
I0
tp590
asS'\x93'
(lp591
(I1
I1
I0
tp592
asS'principal'
p593
(lp594
(I1
I2
I2
tp595
asS'taps'
p596
(lp597
(I0
I1
I3
tp598
asS'versatility'
p599
(lp600
(I0
I1
I0
tp601
asS'being'
p602
(lp603
(I1
I1
I1
tp604
asS'tape'
p605
(lp606
(I0
I1
I0
tp607
asS'inventions'
p608
(lp609
(I0
I1
I0
tp610
asS'achieve'
p611
(lp612
(I1
I1
I1
tp613
asS'meant'
p614
(lp615
(I0
I1
I1
tp616
asS'\xc3'
(lp617
(I1
I1
I0
tp618
asS'word-processing'
p619
(lp620
(I0
I1
I2
tp621
asS'means'
p622
(lp623
(I1
I1
I0
tp624
asS'hollerith'
p625
(lp626
(I0
I2
I0
tp627
asS'areas'
p628
(lp629
(I1
I1
I0
tp630
asS'countries'
p631
(lp632
(I1
I1
I0
tp633
asS'fields'
p634
(lp635
(I1
I1
I0
tp636
asS'naur'
p637
(lp638
(I1
I2
I0
tp639
asS'dijkstra'
p640
(lp641
(I1
I1
I0
tp642
asS'scientist'
p643
(lp644
(I1
I2
I0
tp645
asS'common'
p646
(lp647
(I1
I1
I2
tp648
asS'edsger'
p649
(lp650
(I1
I1
I0
tp651
asS'analytical'
p652
(lp653
(I0
I2
I2
tp654
asS'automatic'
p655
(lp656
(I0
I1
I2
tp657
a(I1
I1
I2
tp658
asS'resist'
p659
(lp660
(I0
I1
I1
tp661
asS'computer'
p662
(lp663
(I0
I4
I0
tp664
a(I1
I12
I0
tp665
a(I1
I4
I0
tp666
asS'are'
p667
(lp668
(I1
I1
I1
tp669
asS'analog'
p670
(lp671
(I0
I1
I0
tp672
asS'closer'
p673
(lp674
(I1
I1
I2
tp675
asS'complementary'
p676
(lp677
(I1
I1
I2
tp678
asS'tend'
p679
(lp680
(I1
I1
I0
tp681
a(I1
I1
I1
tp682
asS'various'
p683
(lp684
(I1
I1
I2
tp685
asS'europe'
p686
(lp687
(I1
I1
I0
tp688
asS'terms'
p689
(lp690
(I1
I1
I0
tp691
asS'opening'
p692
(lp693
(I0
I1
I1
tp694
asS'incarnation'
p695
(lp696
(I0
I1
I0
tp697
asS'however'
p698
(lp699
(I0
I1
I0
tp700
a(I1
I1
I0
tp701
asS'suggested'
p702
(lp703
(I1
I1
I0
tp704
a(I1
I3
I1
tp705
asS'both'
p706
(lp707
(I1
I1
I0
tp708
asS'informatik'
p709
(lp710
(I1
I1
I0
tp711
asS'influential'
p712
(lp713
(I0
I2
I2
tp714
asS'many'
p715
(lp716
(I0
I1
I2
tp717
a(I1
I1
I2
tp718
asS'taking'
p719
(lp720
(I1
I1
I1
tp721
asS'called'
p722
(lp723
(I1
I1
I1
tp724
asS'became'
p725
(lp726
(I0
I1
I1
tp727
asS'logic'
p728
(lp729
(I1
I1
I0
tp730
asS'large-scale'
p731
(lp732
(I0
I1
I0
tp733
asS'basis'
p734
(lp735
(I0
I1
I0
tp736
asS'muddied'
p737
(lp738
(I1
I1
I1
tp739
asS'political'
p740
(lp741
(I1
I1
I2
tp742
asS'been'
p743
(lp744
(I0
I1
I1
tp745
a(I1
I3
I1
tp746
asS'much'
p747
(lp748
(I1
I1
I2
tp749
a(I1
I1
I3
tp750
asS'engine'
p751
(lp752
(I0
I2
I0
tp753
asS'formed'
p754
(lp755
(I1
I1
I1
tp756
asS'observers'
p757
(lp758
(I1
I1
I0
tp759
asS'applied'
p760
(lp761
(I1
I2
I1
tp762
asS'these'
p763
(lp764
(I0
I1
I0
tp765
asS'orientation'
p766
(lp767
(I1
I1
I0
tp768
asS'century'
p769
(lp770
(I0
I3
I0
tp771
asS'is'
p772
(lp773
(I0
I2
I1
tp774
a(I1
I13
I1
tp775
asS'hardware'
p776
(lp777
(I1
I1
I0
tp778
asS'punched'
p779
(lp780
(I0
I1
I1
tp781
a(I0
I3
I2
tp782
asS'in'
p783
(lp784
(I0
I2
I0
tp785
asS'claimed'
p786
(lp787
(I1
I1
I1
tp788
asS'technology'
p789
(lp790
(I1
I1
I0
tp791
asS'media'
p792
(lp793
(I0
I1
I0
tp794
asS'make'
p795
(lp796
(I1
I1
I1
tp797
asS'same'
p798
(lp799
(I1
I1
I2
tp800
asS'emphasize'
p801
(lp802
(I1
I1
I1
tp803
asS'widely'
p804
(lp805
(I0
I1
I3
tp806
asS'several'
p807
(lp808
(I1
I1
I2
tp809
asS'used'
p810
(lp811
(I0
I1
I1
tp812
a(I1
I1
I1
tp813
asS'numerical'
p814
(lp815
(I1
I1
I2
tp816
asS'uses'
p817
(lp818
(I0
I1
I1
tp819
asS'nevertheless'
p820
(lp821
(I0
I1
I0
tp822
asS'academic'
p823
(lp824
(I1
I1
I2
tp825
asS'inability'
p826
(lp827
(I0
I1
I0
tp828
asS'the'
p829
(lp830
(I1
I3
I0
tp831
asS'proposed'
p832
(lp833
(I1
I1
I0
tp834
asS'increasingly'
p835
(lp836
(I0
I1
I3
tp837
asS'deployment'
p838
(lp839
(I1
I2
I0
tp840
asS'useful'
p841
(lp842
(I0
I1
I2
tp843
a(I1
I1
I2
tp844
asS'alternative'
p845
(lp846
(I1
I1
I0
tp847
asS'alignment'
p848
(lp849
(I1
I1
I0
tp850
asS'discipline'
p851
(lp852
(I1
I1
I0
tp853
asS'tables'
p854
(lp855
(I0
I1
I0
tp856
asS'educationally'
p857
(lp858
(I1
I1
I3
tp859
asS'regarded'
p860
(lp861
(I0
I1
I1
tp862
asS'had'
p863
(lp864
(I0
I2
I1
tp865
asS'cue'
p866
(lp867
(I1
I1
I0
tp868
asS'treatment'
p869
(lp870
(I1
I1
I0
tp871
asS'necessarily'
p872
(lp873
(I1
I1
I3
tp874
asS'role'
p875
(lp876
(I0
I1
I0
tp877
asS'has'
p878
(lp879
(I1
I4
I1
tp880
asS'gave'
p881
(lp882
(I0
I1
I1
tp883
asS'aspects'
p884
(lp885
(I1
I1
I0
tp886
asS'early'
p887
(lp888
(I1
I1
I0
tp889
a(I1
I1
I2
tp890
asS'possibly'
p891
(lp892
(I1
I1
I3
tp893
asS'fusion'
p894
(lp895
(I0
I1
I0
tp896
asS'vacuum'
p897
(lp898
(I0
I1
I0
tp899
asS'cognitive'
p900
(lp901
(I1
I1
I2
tp902
asS'specific'
p903
(lp904
(I1
I1
I2
tp905
asS'communications'
p906
(lp907
(I1
I1
I0
tp908
asS'mathematical'
p909
(lp910
(I1
I3
I2
tp911
asS'because'
p912
(lp913
(I1
I1
I0
tp914
asS'often'
p915
(lp916
(I1
I2
I3
tp917
asS'people'
p918
(lp919
(I0
I1
I0
tp920
asS'creation'
p921
(lp922
(I0
I1
I0
tp923
asS'babbage'
p924
(lp925
(I0
I3
I0
tp926
asS'comptologist'
p927
(lp928
(I1
I1
I0
tp929
asS'peter'
p930
(lp931
(I1
I2
I0
tp932
asS'provided'
p933
(lp934
(I0
I1
I1
tp935
asS'for'
p936
(lp937
(I1
I1
I0
tp938
asS'tube'
p939
(lp940
(I0
I1
I0
tp941
asS'tabulator'
p942
(lp943
(I0
I1
I0
tp944
asS'does'
p945
(lp946
(I1
I1
I1
tp947
asS'be'
p948
(lp949
(I0
I1
I1
tp950
a(I1
I1
I1
tp951
asS'scientific'
p952
(lp953
(I0
I1
I2
tp954
a(I1
I3
I2
tp955
asS'informatica'
p956
(lp957
(I1
I1
I1
tp958
asS'processing'
p959
(lp960
(I0
I1
I0
tp961
a(I0
I1
I1
tp962
asS'properties'
p963
(lp964
(I1
I1
I0
tp965
asS'teleprinter'
p966
(lp967
(I0
I1
I0
tp968
asS'census'
p969
(lp970
(I0
I1
I0
tp971
asS'industry'
p972
(lp973
(I0
I1
I0
tp974
asS'months'
p975
(lp976
(I1
I1
I0
tp977
asS'acm'
p978
(lp979
(I1
I1
I0
tp980
asS'practical'
p981
(lp982
(I0
I1
I2
tp983
a(I1
I1
I2
tp984
asS'magazine'
p985
(lp986
(I0
I1
I0
tp987
asS'efforts'
p988
(lp989
(I1
I1
I0
tp990
asS'software'
p991
(lp992
(I1
I3
I0
tp993
asS'computational'
p994
(lp995
(I1
I1
I2
tp996
asS'son'
p997
(lp998
(I0
I1
I0
tp999
asS'next'
p1000
(lp1001
(I1
I1
I2
tp1002
asS'statistics'
p1003
(lp1004
(I1
I1
I0
tp1005
asS'museum'
p1006
(lp1007
(I0
I1
I0
tp1008
asS'initial'
p1009
(lp1010
(I0
I1
I2
tp1011
asS'continental'
p1012
(lp1013
(I1
I1
I2
tp1014
asS'was'
p1015
(lp1016
(I0
I5
I1
tp1017
a(I1
I3
I1
tp1018
asS'blueprint'
p1019
(lp1020
(I0
I1
I0
tp1021
asS'medium'
p1022
(lp1023
(I0
I1
I0
tp1024
asS'sophisticated'
p1025
(lp1026
(I0
I1
I2
tp1027
asS'goals'
p1028
(lp1029
(I1
I1
I0
tp1030
asS'automated'
p1031
(lp1032
(I0
I1
I1
tp1033
asS'technologies'
p1034
(lp1035
(I0
I1
I0
tp1036
asS'problem'
p1037
(lp1038
(I0
I1
I0
tp1039
asS'turingineer'
p1040
(lp1041
(I1
I1
I0
tp1042
asS'strongly'
p1043
(lp1044
(I1
I1
I3
tp1045
asS'model'
p1046
(lp1047
(I0
I1
I0
tp1048
asS'computing'
p1049
(lp1050
(I0
I3
I0
tp1051
a(I1
I2
I0
tp1052
a(I1
I2
I1
tp1053
asS'defined'
p1054
(lp1055
(I1
I1
I0
tp1056
asS'certain'
p1057
(lp1058
(I1
I1
I0
tp1059
asS'general'
p1060
(lp1061
(I1
I1
I2
tp1062
asS'engineering'
p1063
(lp1064
(I1
I6
I0
tp1065
asS'renowned'
p1066
(lp1067
(I1
I1
I1
tp1068
asS'trials'
p1069
(lp1070
(I0
I1
I0
tp1071
asS'generally'
p1072
(lp1073
(I0
I1
I3
tp1074
a(I1
I1
I3
tp1075
asS'field'
p1076
(lp1077
(I1
I2
I0
tp1078
asS'other'
p1079
(lp1080
(I1
I3
I2
tp1081
asS'electrical'
p1082
(lp1083
(I0
I1
I2
tp1084
asS'digital'
p1085
(lp1086
(I0
I1
I0
tp1087
a(I0
I1
I2
tp1088
asS'department'
p1089
(lp1090
(I1
I1
I0
tp1091
a(I1
I1
I0
tp1092
asS'mathematics'
p1093
(lp1094
(I1
I4
I0
tp1095
asS'datalogy'
p1096
(lp1097
(I1
I1
I0
tp1098
a(I1
I2
I0
tp1099
asS'hypologist'
p1100
(lp1101
(I1
I1
I0
tp1102
asS'separate'
p1103
(lp1104
(I1
I1
I2
tp1105
asS'astronomy'
p1106
(lp1107
(I1
I1
I0
tp1108
asS'algorithm'
p1109
(lp1110
(I0
I1
I0
tp1111
asS'departments'
p1112
(lp1113
(I1
I3
I0
tp1114
asS'time'
p1115
(lp1116
(I0
I1
I0
tp1117
as.